(dp0
I8
(ccopy_reg
_reconstructor
p1
(c__main__
ColorGraph
p2
c__builtin__
object
p3
Ntp4
Rp5
(dp6
S'ALL_COLOURS'
p7
(lp8
S'0'
p9
aS'1'
p10
aS'2'
p11
aS'3'
p12
aS'4'
p13
aS'5'
p14
aS'6'
p15
aS'7'
p16
aS'8'
p17
aS'9'
p18
aS'10'
p19
aS'11'
p20
aS'12'
p21
aS'13'
p22
aS'14'
p23
aS'15'
p24
aS'16'
p25
aS'17'
p26
aS'18'
p27
aS'19'
p28
asS'plotname'
p29
S'graphcolouring'
p30
sS'revert'
p31
I01
sS'colours'
p32
(dp33
I0
S'#00B1EB'
p34
sI1
S'#FCEA10'
p35
sI2
S'#E51C39'
p36
sI3
g35
sI4
g34
sI5
g35
sI6
g36
sI7
g34
ssS'graph'
p37
g1
(cnetworkx.classes.graph
Graph
p38
g3
Ntp39
Rp40
(dp41
S'node'
p42
(dp43
I0
(dp44
sI1
(dp45
sI2
(dp46
sI3
(dp47
sI4
(dp48
sI5
(dp49
sI6
(dp50
sI7
(dp51
ssS'node_dict_factory'
p52
c__builtin__
dict
p53
sS'edge_attr_dict_factory'
p54
g53
sS'edge'
p55
(dp56
I0
(dp57
I1
(dp58
sI2
(dp59
sI5
(dp60
sI6
(dp61
ssI1
(dp62
I0
g58
sI2
(dp63
ssI2
(dp64
I0
g59
sI1
g63
sI3
(dp65
sI5
(dp66
sI7
(dp67
ssI3
(dp68
I2
g65
sI4
(dp69
sI6
(dp70
sI7
(dp71
ssI4
(dp72
I3
g69
sI5
(dp73
sI6
(dp74
ssI5
(dp75
I0
g60
sI2
g66
sI4
g73
ssI6
(dp76
I0
g61
sI3
g70
sI4
g74
ssI7
(dp77
I2
g67
sI3
g71
sssg37
(dp78
sS'adjlist_dict_factory'
p79
g53
sS'adj'
p80
g56
sbsS'DIRECTORY'
p81
S'/home/mickael/Documents/projects/examination-scheduling/booth/plots/'
p82
sS'history'
p83
(dp84
I0
(dp85
I0
S'white'
p86
sI1
g86
sI2
g86
sI3
g86
sI4
g86
sI5
g86
sI6
g86
sI7
g86
ssI1
(dp87
I0
g34
sI1
g86
sI2
g86
sI3
g86
sI4
g86
sI5
g86
sI6
g86
sI7
g86
ssI2
(dp88
I0
g34
sI1
g86
sI2
g36
sI3
g86
sI4
g86
sI5
g86
sI6
g86
sI7
g86
ssI3
(dp89
I0
g34
sI1
g86
sI2
g36
sI3
g86
sI4
g86
sI5
g86
sI6
g86
sI7
g34
ssI4
(dp90
I0
g34
sI1
g86
sI2
g36
sI3
g86
sI4
g86
sI5
g86
sI6
g36
sI7
g34
ssI5
(dp91
I0
g34
sI1
g86
sI2
g36
sI3
g35
sI4
g86
sI5
g86
sI6
g36
sI7
g34
ssI6
(dp92
I0
g34
sI1
g86
sI2
g36
sI3
g35
sI4
g86
sI5
g35
sI6
g36
sI7
g34
ssI7
(dp93
I0
g34
sI1
g86
sI2
g36
sI3
g35
sI4
g34
sI5
g35
sI6
g36
sI7
g34
ssI8
(dp94
I0
g34
sI1
g35
sI2
g36
sI3
g35
sI4
g34
sI5
g35
sI6
g36
sI7
g34
sssbI1
tp95
sI9
(g1
(g2
g3
Ntp96
Rp97
(dp98
g7
(lp99
g9
ag10
ag11
ag12
ag13
ag14
ag15
ag16
ag17
ag18
aS'10'
p100
aS'11'
p101
aS'12'
p102
aS'13'
p103
aS'14'
p104
aS'15'
p105
aS'16'
p106
aS'17'
p107
aS'18'
p108
aS'19'
p109
asg29
g30
sg31
I01
sg32
(dp110
I0
g34
sI1
g36
sI2
g34
sI3
g35
sI4
g34
sI5
g36
sI6
g34
sI7
g35
sI8
g36
ssg37
g1
(g38
g3
Ntp111
Rp112
(dp113
g42
(dp114
I0
(dp115
sI1
(dp116
sI2
(dp117
sI3
(dp118
sI4
(dp119
sI5
(dp120
sI6
(dp121
sI7
(dp122
sI8
(dp123
ssg52
g53
sg54
g53
sg55
(dp124
I0
(dp125
I3
(dp126
sI5
(dp127
ssI1
(dp128
I2
(dp129
sI3
(dp130
sI6
(dp131
sI7
(dp132
ssI2
(dp133
I1
g129
sI3
(dp134
sI5
(dp135
sI7
(dp136
ssI3
(dp137
I0
g126
sI1
g130
sI2
g134
sI4
(dp138
sI8
(dp139
ssI4
(dp140
I8
(dp141
sI3
g138
sI5
(dp142
ssI5
(dp143
I0
g127
sI2
g135
sI4
g142
ssI6
(dp144
I8
(dp145
sI1
g131
sI7
(dp146
ssI7
(dp147
I1
g132
sI2
g136
sI6
g146
ssI8
(dp148
I3
g139
sI4
g141
sI6
g145
sssg37
(dp149
sg79
g53
sg80
g124
sbsg81
S'/home/mickael/Documents/projects/examination-scheduling/booth/plots/'
p150
sg83
(dp151
I0
(dp152
I0
g86
sI1
g86
sI2
g86
sI3
g86
sI4
g86
sI5
g86
sI6
g86
sI7
g86
sI8
g86
ssI1
(dp153
I0
g86
sI1
g86
sI2
g34
sI3
g86
sI4
g86
sI5
g86
sI6
g86
sI7
g86
sI8
g86
ssI2
(dp154
I0
g34
sI1
g86
sI2
g34
sI3
g86
sI4
g86
sI5
g86
sI6
g86
sI7
g86
sI8
g86
ssI3
(dp155
I0
g34
sI1
g86
sI2
g34
sI3
g86
sI4
g86
sI5
g86
sI6
g34
sI7
g86
sI8
g86
ssI4
(dp156
I0
g34
sI1
g36
sI2
g34
sI3
g86
sI4
g86
sI5
g86
sI6
g34
sI7
g86
sI8
g86
ssI5
(dp157
I0
g34
sI1
g36
sI2
g34
sI3
g86
sI4
g86
sI5
g36
sI6
g34
sI7
g86
sI8
g86
ssI6
(dp158
I0
g34
sI1
g36
sI2
g34
sI3
g35
sI4
g86
sI5
g36
sI6
g34
sI7
g86
sI8
g86
ssI7
(dp159
I0
g34
sI1
g36
sI2
g34
sI3
g35
sI4
g34
sI5
g36
sI6
g34
sI7
g86
sI8
g86
ssI8
(dp160
I0
g34
sI1
g36
sI2
g34
sI3
g35
sI4
g34
sI5
g36
sI6
g34
sI7
g86
sI8
g36
ssI9
(dp161
I0
g34
sI1
g36
sI2
g34
sI3
g35
sI4
g34
sI5
g36
sI6
g34
sI7
g35
sI8
g36
sssbI1
tp162
sI10
(g1
(g2
g3
Ntp163
Rp164
(dp165
g7
(lp166
g9
ag10
ag11
ag12
ag13
ag14
ag15
ag16
ag17
ag18
aS'10'
p167
aS'11'
p168
aS'12'
p169
aS'13'
p170
aS'14'
p171
aS'15'
p172
aS'16'
p173
aS'17'
p174
aS'18'
p175
aS'19'
p176
asg29
g30
sg31
I01
sg32
(dp177
I0
g35
sI1
g36
sI2
g34
sI3
g34
sI4
g36
sI5
g36
sI6
g34
sI7
g36
sI8
g35
sI9
g34
ssg37
g1
(g38
g3
Ntp178
Rp179
(dp180
g42
(dp181
I0
(dp182
sI1
(dp183
sI2
(dp184
sI3
(dp185
sI4
(dp186
sI5
(dp187
sI6
(dp188
sI7
(dp189
sI8
(dp190
sI9
(dp191
ssg52
g53
sg54
g53
sg55
(dp192
I0
(dp193
I9
(dp194
sI4
(dp195
sI5
(dp196
sI7
(dp197
ssI1
(dp198
I8
(dp199
sI9
(dp200
ssI2
(dp201
I8
(dp202
sI4
(dp203
sI5
(dp204
ssI3
(dp205
I5
(dp206
sI7
(dp207
ssI4
(dp208
I0
g195
sI8
(dp209
sI2
g203
sI9
(dp210
ssI5
(dp211
I0
g196
sI9
(dp212
sI2
g204
sI3
g206
sI6
(dp213
ssI6
(dp214
I8
(dp215
sI5
g213
ssI7
(dp216
I0
g197
sI9
(dp217
sI3
g207
ssI8
(dp218
I1
g199
sI2
g202
sI4
g209
sI6
g215
sI9
(dp219
ssI9
(dp220
I0
g194
sI1
g200
sI4
g210
sI5
g212
sI7
g217
sI8
g219
sssg37
(dp221
sg79
g53
sg80
g192
sbsg81
S'/home/mickael/Documents/projects/examination-scheduling/booth/plots/'
p222
sg83
(dp223
I0
(dp224
I0
g86
sI1
g86
sI2
g86
sI3
g86
sI4
g86
sI5
g86
sI6
g86
sI7
g86
sI8
g86
sI9
g86
ssI1
(dp225
I0
g86
sI1
g86
sI2
g86
sI3
g86
sI4
g86
sI5
g86
sI6
g86
sI7
g86
sI8
g86
sI9
g34
ssI2
(dp226
I0
g86
sI1
g86
sI2
g86
sI3
g86
sI4
g36
sI5
g86
sI6
g86
sI7
g86
sI8
g86
sI9
g34
ssI3
(dp227
I0
g86
sI1
g36
sI2
g86
sI3
g86
sI4
g36
sI5
g86
sI6
g86
sI7
g86
sI8
g86
sI9
g34
ssI4
(dp228
I0
g86
sI1
g36
sI2
g34
sI3
g86
sI4
g36
sI5
g86
sI6
g86
sI7
g86
sI8
g86
sI9
g34
ssI5
(dp229
I0
g86
sI1
g36
sI2
g34
sI3
g86
sI4
g36
sI5
g86
sI6
g86
sI7
g36
sI8
g86
sI9
g34
ssI6
(dp230
I0
g86
sI1
g36
sI2
g34
sI3
g86
sI4
g36
sI5
g86
sI6
g34
sI7
g36
sI8
g86
sI9
g34
ssI7
(dp231
I0
g35
sI1
g36
sI2
g34
sI3
g86
sI4
g36
sI5
g86
sI6
g34
sI7
g36
sI8
g86
sI9
g34
ssI8
(dp232
I0
g35
sI1
g36
sI2
g34
sI3
g34
sI4
g36
sI5
g86
sI6
g34
sI7
g36
sI8
g86
sI9
g34
ssI9
(dp233
I0
g35
sI1
g36
sI2
g34
sI3
g34
sI4
g36
sI5
g86
sI6
g34
sI7
g36
sI8
g35
sI9
g34
ssI10
(dp234
I0
g35
sI1
g36
sI2
g34
sI3
g34
sI4
g36
sI5
g36
sI6
g34
sI7
g36
sI8
g35
sI9
g34
sssbI1
tp235
sI11
(g1
(g2
g3
Ntp236
Rp237
(dp238
g7
(lp239
g9
ag10
ag11
ag12
ag13
ag14
ag15
ag16
ag17
ag18
aS'10'
p240
aS'11'
p241
aS'12'
p242
aS'13'
p243
aS'14'
p244
aS'15'
p245
aS'16'
p246
aS'17'
p247
aS'18'
p248
aS'19'
p249
asg29
g30
sg31
I01
sg32
(dp250
I0
g36
sI1
g34
sI2
g36
sI3
g36
sI4
g36
sI5
g35
sI6
g34
sI7
g34
sI8
g35
sI9
g35
sI10
g34
ssg37
g1
(g38
g3
Ntp251
Rp252
(dp253
g42
(dp254
I0
(dp255
sI1
(dp256
sI2
(dp257
sI3
(dp258
sI4
(dp259
sI5
(dp260
sI6
(dp261
sI7
(dp262
sI8
(dp263
sI9
(dp264
sI10
(dp265
ssg52
g53
sg54
g53
sg55
(dp266
I0
(dp267
I1
(dp268
sI10
(dp269
sI5
(dp270
sI9
(dp271
ssI1
(dp272
I0
g268
sI2
(dp273
sI3
(dp274
sI4
(dp275
sI5
(dp276
sI9
(dp277
ssI2
(dp278
I1
g273
sI5
(dp279
sI6
(dp280
sI7
(dp281
ssI3
(dp282
I8
(dp283
sI1
g274
sI10
(dp284
sI9
(dp285
sI7
(dp286
ssI4
(dp287
I8
(dp288
sI1
g275
sI7
(dp289
ssI5
(dp290
I0
g270
sI1
g276
sI2
g279
sI6
(dp291
ssI6
(dp292
I8
(dp293
sI2
g280
sI5
g291
ssI7
(dp294
I8
(dp295
sI2
g281
sI3
g286
sI4
g289
ssI8
(dp296
I10
(dp297
sI3
g283
sI4
g288
sI6
g293
sI7
g295
ssI9
(dp298
I0
g271
sI1
g277
sI10
(dp299
sI3
g285
ssI10
(dp300
I0
g269
sI8
g297
sI3
g284
sI9
g299
sssg37
(dp301
sg79
g53
sg80
g266
sbsg81
S'/home/mickael/Documents/projects/examination-scheduling/booth/plots/'
p302
sg83
(dp303
I0
(dp304
I0
g86
sI1
g86
sI2
g86
sI3
g86
sI4
g86
sI5
g86
sI6
g86
sI7
g86
sI8
g86
sI9
g86
sI10
g86
ssI1
(dp305
I0
g86
sI1
g86
sI2
g86
sI3
g86
sI4
g86
sI5
g86
sI6
g86
sI7
g34
sI8
g86
sI9
g86
sI10
g86
ssI2
(dp306
I0
g86
sI1
g86
sI2
g86
sI3
g86
sI4
g86
sI5
g86
sI6
g86
sI7
g34
sI8
g86
sI9
g86
sI10
g34
ssI3
(dp307
I0
g86
sI1
g34
sI2
g86
sI3
g86
sI4
g86
sI5
g86
sI6
g86
sI7
g34
sI8
g86
sI9
g86
sI10
g34
ssI4
(dp308
I0
g86
sI1
g34
sI2
g86
sI3
g86
sI4
g36
sI5
g86
sI6
g86
sI7
g34
sI8
g86
sI9
g86
sI10
g34
ssI5
(dp309
I0
g36
sI1
g34
sI2
g86
sI3
g86
sI4
g36
sI5
g86
sI6
g86
sI7
g34
sI8
g86
sI9
g86
sI10
g34
ssI6
(dp310
I0
g36
sI1
g34
sI2
g86
sI3
g86
sI4
g36
sI5
g86
sI6
g34
sI7
g34
sI8
g86
sI9
g86
sI10
g34
ssI7
(dp311
I0
g36
sI1
g34
sI2
g86
sI3
g86
sI4
g36
sI5
g86
sI6
g34
sI7
g34
sI8
g35
sI9
g86
sI10
g34
ssI8
(dp312
I0
g36
sI1
g34
sI2
g86
sI3
g86
sI4
g36
sI5
g86
sI6
g34
sI7
g34
sI8
g35
sI9
g35
sI10
g34
ssI9
(dp313
I0
g36
sI1
g34
sI2
g86
sI3
g36
sI4
g36
sI5
g86
sI6
g34
sI7
g34
sI8
g35
sI9
g35
sI10
g34
ssI10
(dp314
I0
g36
sI1
g34
sI2
g36
sI3
g36
sI4
g36
sI5
g86
sI6
g34
sI7
g34
sI8
g35
sI9
g35
sI10
g34
ssI11
(dp315
I0
g36
sI1
g34
sI2
g36
sI3
g36
sI4
g36
sI5
g35
sI6
g34
sI7
g34
sI8
g35
sI9
g35
sI10
g34
sssbI2
tp316
sI12
(g1
(g2
g3
Ntp317
Rp318
(dp319
g7
(lp320
g9
ag10
ag11
ag12
ag13
ag14
ag15
ag16
ag17
ag18
aS'10'
p321
aS'11'
p322
aS'12'
p323
aS'13'
p324
aS'14'
p325
aS'15'
p326
aS'16'
p327
aS'17'
p328
aS'18'
p329
aS'19'
p330
asg29
g30
sg31
I01
sg32
(dp331
I0
g34
sI1
g35
sI2
g34
sI3
g35
sI4
g35
sI5
g36
sI6
g34
sI7
g36
sI8
g34
sI9
g34
sI10
g34
sI11
g36
ssg37
g1
(g38
g3
Ntp332
Rp333
(dp334
g42
(dp335
I0
(dp336
sI1
(dp337
sI2
(dp338
sI3
(dp339
sI4
(dp340
sI5
(dp341
sI6
(dp342
sI7
(dp343
sI8
(dp344
sI9
(dp345
sI10
(dp346
sI11
(dp347
ssg52
g53
sg54
g53
sg55
(dp348
I0
(dp349
I1
(dp350
sI11
(dp351
sI7
(dp352
ssI1
(dp353
I0
g350
sI9
(dp354
sI2
(dp355
sI5
(dp356
sI7
(dp357
ssI2
(dp358
I1
g355
sI3
(dp359
sI4
(dp360
sI7
(dp361
ssI3
(dp362
I2
g359
sI5
(dp363
sI6
(dp364
sI7
(dp365
sI10
(dp366
sI11
(dp367
ssI4
(dp368
I2
g360
sI5
(dp369
sI6
(dp370
sI9
(dp371
sI10
(dp372
sI11
(dp373
ssI5
(dp374
I1
g356
sI10
(dp375
sI3
g363
sI4
g369
ssI6
(dp376
I11
(dp377
sI3
g364
sI4
g370
sI7
(dp378
ssI7
(dp379
I0
g352
sI1
g357
sI2
g361
sI3
g365
sI6
g378
sI8
(dp380
sI9
(dp381
sI10
(dp382
ssI8
(dp383
I7
g380
ssI9
(dp384
I1
g354
sI4
g371
sI7
g381
ssI10
(dp385
I11
(dp386
sI3
g366
sI4
g372
sI5
g375
sI7
g382
ssI11
(dp387
I0
g351
sI10
g386
sI3
g367
sI4
g373
sI6
g377
sssg37
(dp388
sg79
g53
sg80
g348
sbsg81
S'/home/mickael/Documents/projects/examination-scheduling/booth/plots/'
p389
sg83
(dp390
I0
(dp391
I0
g86
sI1
g86
sI2
g86
sI3
g86
sI4
g86
sI5
g86
sI6
g86
sI7
g86
sI8
g86
sI9
g86
sI10
g86
sI11
g86
ssI1
(dp392
I0
g86
sI1
g86
sI2
g86
sI3
g86
sI4
g86
sI5
g86
sI6
g86
sI7
g86
sI8
g34
sI9
g86
sI10
g86
sI11
g86
ssI2
(dp393
I0
g86
sI1
g86
sI2
g86
sI3
g86
sI4
g86
sI5
g86
sI6
g86
sI7
g86
sI8
g34
sI9
g86
sI10
g34
sI11
g86
ssI3
(dp394
I0
g86
sI1
g86
sI2
g86
sI3
g86
sI4
g86
sI5
g36
sI6
g86
sI7
g86
sI8
g34
sI9
g86
sI10
g34
sI11
g86
ssI4
(dp395
I0
g86
sI1
g86
sI2
g34
sI3
g86
sI4
g86
sI5
g36
sI6
g86
sI7
g86
sI8
g34
sI9
g86
sI10
g34
sI11
g86
ssI5
(dp396
I0
g86
sI1
g86
sI2
g34
sI3
g86
sI4
g86
sI5
g36
sI6
g86
sI7
g86
sI8
g34
sI9
g34
sI10
g34
sI11
g86
ssI6
(dp397
I0
g86
sI1
g86
sI2
g34
sI3
g86
sI4
g86
sI5
g36
sI6
g34
sI7
g86
sI8
g34
sI9
g34
sI10
g34
sI11
g86
ssI7
(dp398
I0
g34
sI1
g86
sI2
g34
sI3
g86
sI4
g86
sI5
g36
sI6
g34
sI7
g86
sI8
g34
sI9
g34
sI10
g34
sI11
g86
ssI8
(dp399
I0
g34
sI1
g86
sI2
g34
sI3
g86
sI4
g86
sI5
g36
sI6
g34
sI7
g86
sI8
g34
sI9
g34
sI10
g34
sI11
g36
ssI9
(dp400
I0
g34
sI1
g86
sI2
g34
sI3
g35
sI4
g86
sI5
g36
sI6
g34
sI7
g86
sI8
g34
sI9
g34
sI10
g34
sI11
g36
ssI10
(dp401
I0
g34
sI1
g35
sI2
g34
sI3
g35
sI4
g86
sI5
g36
sI6
g34
sI7
g86
sI8
g34
sI9
g34
sI10
g34
sI11
g36
ssI11
(dp402
I0
g34
sI1
g35
sI2
g34
sI3
g35
sI4
g35
sI5
g36
sI6
g34
sI7
g86
sI8
g34
sI9
g34
sI10
g34
sI11
g36
ssI12
(dp403
I0
g34
sI1
g35
sI2
g34
sI3
g35
sI4
g35
sI5
g36
sI6
g34
sI7
g36
sI8
g34
sI9
g34
sI10
g34
sI11
g36
sssbI1
tp404
sI13
(g1
(g2
g3
Ntp405
Rp406
(dp407
g7
(lp408
g9
ag10
ag11
ag12
ag13
ag14
ag15
ag16
ag17
ag18
aS'10'
p409
aS'11'
p410
aS'12'
p411
aS'13'
p412
aS'14'
p413
aS'15'
p414
aS'16'
p415
aS'17'
p416
aS'18'
p417
aS'19'
p418
asg29
g30
sg31
I01
sg32
(dp419
I0
g35
sI1
g34
sI2
g34
sI3
g34
sI4
g36
sI5
g36
sI6
g35
sI7
g34
sI8
g36
sI9
g35
sI10
g36
sI11
g35
sI12
g34
ssg37
g1
(g38
g3
Ntp420
Rp421
(dp422
g42
(dp423
I0
(dp424
sI1
(dp425
sI2
(dp426
sI3
(dp427
sI4
(dp428
sI5
(dp429
sI6
(dp430
sI7
(dp431
sI8
(dp432
sI9
(dp433
sI10
(dp434
sI11
(dp435
sI12
(dp436
ssg52
g53
sg54
g53
sg55
(dp437
I0
(dp438
I8
(dp439
sI2
(dp440
sI4
(dp441
ssI1
(dp442
I10
(dp443
sI4
(dp444
sI5
(dp445
sI6
(dp446
ssI2
(dp447
I0
g440
sI9
(dp448
sI10
(dp449
sI11
(dp450
sI4
(dp451
ssI3
(dp452
I8
(dp453
sI11
(dp454
sI5
(dp455
sI6
(dp456
ssI4
(dp457
I0
g441
sI1
g444
sI2
g451
sI7
(dp458
sI9
(dp459
sI12
(dp460
ssI5
(dp461
I11
(dp462
sI1
g445
sI3
g455
ssI6
(dp463
I1
g446
sI10
(dp464
sI3
g456
ssI7
(dp465
I8
(dp466
sI9
(dp467
sI4
g458
ssI8
(dp468
I0
g439
sI3
g453
sI7
g466
ssI9
(dp469
I12
(dp470
sI2
g448
sI4
g459
sI7
g467
ssI10
(dp471
I1
g443
sI2
g449
sI6
g464
ssI11
(dp472
I2
g450
sI3
g454
sI5
g462
ssI12
(dp473
I9
g470
sI4
g460
sssg37
(dp474
sg79
g53
sg80
g437
sbsg81
S'/home/mickael/Documents/projects/examination-scheduling/booth/plots/'
p475
sg83
(dp476
I0
(dp477
I0
g86
sI1
g86
sI2
g86
sI3
g86
sI4
g86
sI5
g86
sI6
g86
sI7
g86
sI8
g86
sI9
g86
sI10
g86
sI11
g86
sI12
g86
ssI1
(dp478
I0
g86
sI1
g86
sI2
g86
sI3
g34
sI4
g86
sI5
g86
sI6
g86
sI7
g86
sI8
g86
sI9
g86
sI10
g86
sI11
g86
sI12
g86
ssI2
(dp479
I0
g86
sI1
g86
sI2
g34
sI3
g34
sI4
g86
sI5
g86
sI6
g86
sI7
g86
sI8
g86
sI9
g86
sI10
g86
sI11
g86
sI12
g86
ssI3
(dp480
I0
g86
sI1
g86
sI2
g34
sI3
g34
sI4
g86
sI5
g86
sI6
g86
sI7
g86
sI8
g86
sI9
g86
sI10
g86
sI11
g86
sI12
g34
ssI4
(dp481
I0
g86
sI1
g86
sI2
g34
sI3
g34
sI4
g36
sI5
g86
sI6
g86
sI7
g86
sI8
g86
sI9
g86
sI10
g86
sI11
g86
sI12
g34
ssI5
(dp482
I0
g86
sI1
g86
sI2
g34
sI3
g34
sI4
g36
sI5
g36
sI6
g86
sI7
g86
sI8
g86
sI9
g86
sI10
g86
sI11
g86
sI12
g34
ssI6
(dp483
I0
g86
sI1
g86
sI2
g34
sI3
g34
sI4
g36
sI5
g36
sI6
g86
sI7
g86
sI8
g36
sI9
g86
sI10
g86
sI11
g86
sI12
g34
ssI7
(dp484
I0
g86
sI1
g86
sI2
g34
sI3
g34
sI4
g36
sI5
g36
sI6
g86
sI7
g86
sI8
g36
sI9
g35
sI10
g86
sI11
g86
sI12
g34
ssI8
(dp485
I0
g86
sI1
g86
sI2
g34
sI3
g34
sI4
g36
sI5
g36
sI6
g86
sI7
g34
sI8
g36
sI9
g35
sI10
g86
sI11
g86
sI12
g34
ssI9
(dp486
I0
g86
sI1
g86
sI2
g34
sI3
g34
sI4
g36
sI5
g36
sI6
g86
sI7
g34
sI8
g36
sI9
g35
sI10
g36
sI11
g86
sI12
g34
ssI10
(dp487
I0
g35
sI1
g86
sI2
g34
sI3
g34
sI4
g36
sI5
g36
sI6
g86
sI7
g34
sI8
g36
sI9
g35
sI10
g36
sI11
g86
sI12
g34
ssI11
(dp488
I0
g35
sI1
g86
sI2
g34
sI3
g34
sI4
g36
sI5
g36
sI6
g86
sI7
g34
sI8
g36
sI9
g35
sI10
g36
sI11
g35
sI12
g34
ssI12
(dp489
I0
g35
sI1
g86
sI2
g34
sI3
g34
sI4
g36
sI5
g36
sI6
g35
sI7
g34
sI8
g36
sI9
g35
sI10
g36
sI11
g35
sI12
g34
ssI13
(dp490
I0
g35
sI1
g34
sI2
g34
sI3
g34
sI4
g36
sI5
g36
sI6
g35
sI7
g34
sI8
g36
sI9
g35
sI10
g36
sI11
g35
sI12
g34
sssbI1
tp491
sI14
(g1
(g2
g3
Ntp492
Rp493
(dp494
g7
(lp495
g9
ag10
ag11
ag12
ag13
ag14
ag15
ag16
ag17
ag18
aS'10'
p496
aS'11'
p497
aS'12'
p498
aS'13'
p499
aS'14'
p500
aS'15'
p501
aS'16'
p502
aS'17'
p503
aS'18'
p504
aS'19'
p505
asg29
g30
sg31
I01
sg32
(dp506
I0
g34
sI1
g36
sI2
g36
sI3
g34
sI4
g34
sI5
g36
sI6
g36
sI7
g35
sI8
g35
sI9
g35
sI10
g34
sI11
g34
sI12
g34
sI13
g34
ssg37
g1
(g38
g3
Ntp507
Rp508
(dp509
g42
(dp510
I0
(dp511
sI1
(dp512
sI2
(dp513
sI3
(dp514
sI4
(dp515
sI5
(dp516
sI6
(dp517
sI7
(dp518
sI8
(dp519
sI9
(dp520
sI10
(dp521
sI11
(dp522
sI12
(dp523
sI13
(dp524
ssg52
g53
sg54
g53
sg55
(dp525
I0
(dp526
I9
(dp527
sI5
(dp528
sI6
(dp529
ssI1
(dp530
I11
(dp531
sI12
(dp532
sI13
(dp533
sI7
(dp534
ssI2
(dp535
I8
(dp536
sI12
(dp537
sI13
(dp538
ssI3
(dp539
I8
(dp540
sI9
(dp541
sI5
(dp542
ssI4
(dp543
sI5
(dp544
I0
g528
sI10
(dp545
sI3
g542
ssI6
(dp546
I0
g529
sI8
(dp547
sI9
(dp548
sI10
(dp549
sI12
(dp550
sI13
(dp551
ssI7
(dp552
I1
g534
sI11
(dp553
sI12
(dp554
sI13
(dp555
ssI8
(dp556
I2
g536
sI3
g540
sI6
g547
sI10
(dp557
sI11
(dp558
sI12
(dp559
ssI9
(dp560
I0
g527
sI11
(dp561
sI10
(dp562
sI3
g541
sI6
g548
ssI10
(dp563
I8
g557
sI9
g562
sI5
g545
sI6
g549
ssI11
(dp564
I8
g558
sI1
g531
sI9
g561
sI7
g553
ssI12
(dp565
I8
g559
sI1
g532
sI2
g537
sI6
g550
sI7
g554
ssI13
(dp566
I1
g533
sI2
g538
sI6
g551
sI7
g555
sssg37
(dp567
sg79
g53
sg80
g525
sbsg81
S'/home/mickael/Documents/projects/examination-scheduling/booth/plots/'
p568
sg83
(dp569
I0
(dp570
I0
g86
sI1
g86
sI2
g86
sI3
g86
sI4
g86
sI5
g86
sI6
g86
sI7
g86
sI8
g86
sI9
g86
sI10
g86
sI11
g86
sI12
g86
sI13
g86
ssI1
(dp571
I0
g86
sI1
g86
sI2
g86
sI3
g86
sI4
g86
sI5
g86
sI6
g86
sI7
g86
sI8
g86
sI9
g86
sI10
g86
sI11
g34
sI12
g86
sI13
g86
ssI2
(dp572
I0
g34
sI1
g86
sI2
g86
sI3
g86
sI4
g86
sI5
g86
sI6
g86
sI7
g86
sI8
g86
sI9
g86
sI10
g86
sI11
g34
sI12
g86
sI13
g86
ssI3
(dp573
I0
g34
sI1
g86
sI2
g86
sI3
g86
sI4
g86
sI5
g86
sI6
g36
sI7
g86
sI8
g86
sI9
g86
sI10
g86
sI11
g34
sI12
g86
sI13
g86
ssI4
(dp574
I0
g34
sI1
g36
sI2
g86
sI3
g86
sI4
g86
sI5
g86
sI6
g36
sI7
g86
sI8
g86
sI9
g86
sI10
g86
sI11
g34
sI12
g86
sI13
g86
ssI5
(dp575
I0
g34
sI1
g36
sI2
g86
sI3
g86
sI4
g86
sI5
g86
sI6
g36
sI7
g86
sI8
g86
sI9
g86
sI10
g86
sI11
g34
sI12
g86
sI13
g34
ssI6
(dp576
I0
g34
sI1
g36
sI2
g86
sI3
g86
sI4
g86
sI5
g86
sI6
g36
sI7
g86
sI8
g86
sI9
g86
sI10
g34
sI11
g34
sI12
g86
sI13
g34
ssI7
(dp577
I0
g34
sI1
g36
sI2
g86
sI3
g86
sI4
g86
sI5
g86
sI6
g36
sI7
g86
sI8
g86
sI9
g86
sI10
g34
sI11
g34
sI12
g34
sI13
g34
ssI8
(dp578
I0
g34
sI1
g36
sI2
g86
sI3
g34
sI4
g86
sI5
g86
sI6
g36
sI7
g86
sI8
g86
sI9
g86
sI10
g34
sI11
g34
sI12
g34
sI13
g34
ssI9
(dp579
I0
g34
sI1
g36
sI2
g86
sI3
g34
sI4
g86
sI5
g86
sI6
g36
sI7
g35
sI8
g86
sI9
g86
sI10
g34
sI11
g34
sI12
g34
sI13
g34
ssI10
(dp580
I0
g34
sI1
g36
sI2
g86
sI3
g34
sI4
g34
sI5
g86
sI6
g36
sI7
g35
sI8
g86
sI9
g86
sI10
g34
sI11
g34
sI12
g34
sI13
g34
ssI11
(dp581
I0
g34
sI1
g36
sI2
g36
sI3
g34
sI4
g34
sI5
g86
sI6
g36
sI7
g35
sI8
g86
sI9
g86
sI10
g34
sI11
g34
sI12
g34
sI13
g34
ssI12
(dp582
I0
g34
sI1
g36
sI2
g36
sI3
g34
sI4
g34
sI5
g36
sI6
g36
sI7
g35
sI8
g86
sI9
g86
sI10
g34
sI11
g34
sI12
g34
sI13
g34
ssI13
(dp583
I0
g34
sI1
g36
sI2
g36
sI3
g34
sI4
g34
sI5
g36
sI6
g36
sI7
g35
sI8
g35
sI9
g86
sI10
g34
sI11
g34
sI12
g34
sI13
g34
ssI14
(dp584
I0
g34
sI1
g36
sI2
g36
sI3
g34
sI4
g34
sI5
g36
sI6
g36
sI7
g35
sI8
g35
sI9
g35
sI10
g34
sI11
g34
sI12
g34
sI13
g34
sssbI2
tp585
sI15
(g1
(g2
g3
Ntp586
Rp587
(dp588
g7
(lp589
g9
ag10
ag11
ag12
ag13
ag14
ag15
ag16
ag17
ag18
aS'10'
p590
aS'11'
p591
aS'12'
p592
aS'13'
p593
aS'14'
p594
aS'15'
p595
aS'16'
p596
aS'17'
p597
aS'18'
p598
aS'19'
p599
asg29
g30
sg31
I01
sg32
(dp600
I0
g36
sI1
g34
sI2
g34
sI3
g35
sI4
g35
sI5
g34
sI6
g36
sI7
g34
sI8
g35
sI9
g34
sI10
g36
sI11
g36
sI12
g36
sI13
g35
sI14
g34
ssg37
g1
(g38
g3
Ntp601
Rp602
(dp603
g42
(dp604
I0
(dp605
sI1
(dp606
sI2
(dp607
sI3
(dp608
sI4
(dp609
sI5
(dp610
sI6
(dp611
sI7
(dp612
sI8
(dp613
sI9
(dp614
sI10
(dp615
sI11
(dp616
sI12
(dp617
sI13
(dp618
sI14
(dp619
ssg52
g53
sg54
g53
sg55
(dp620
I0
(dp621
I3
(dp622
sI4
(dp623
sI14
(dp624
sI7
(dp625
ssI1
(dp626
I10
(dp627
sI4
(dp628
ssI2
(dp629
I12
(dp630
sI6
(dp631
ssI3
(dp632
I0
g622
sI12
(dp633
sI5
(dp634
sI14
(dp635
ssI4
(dp636
I0
g623
sI1
g628
sI6
(dp637
sI10
(dp638
sI12
(dp639
sI14
(dp640
ssI5
(dp641
I10
(dp642
sI3
g634
sI12
(dp643
ssI6
(dp644
I8
(dp645
sI2
g631
sI4
g637
sI13
(dp646
ssI7
(dp647
I0
g625
sI12
(dp648
ssI8
(dp649
I9
(dp650
sI10
(dp651
sI11
(dp652
sI14
(dp653
sI6
g645
ssI9
(dp654
I8
g650
sI11
(dp655
sI12
(dp656
sI13
(dp657
ssI10
(dp658
I8
g651
sI1
g627
sI4
g638
sI5
g642
ssI11
(dp659
I8
g652
sI9
g655
sI14
(dp660
ssI12
(dp661
I2
g630
sI3
g633
sI4
g639
sI5
g643
sI7
g648
sI9
g656
sI13
(dp662
ssI13
(dp663
I9
g657
sI12
g662
sI6
g646
ssI14
(dp664
I0
g624
sI8
g653
sI3
g635
sI4
g640
sI11
g660
sssg37
(dp665
sg79
g53
sg80
g620
sbsg81
S'/home/mickael/Documents/projects/examination-scheduling/booth/plots/'
p666
sg83
(dp667
I0
(dp668
I0
g86
sI1
g86
sI2
g86
sI3
g86
sI4
g86
sI5
g86
sI6
g86
sI7
g86
sI8
g86
sI9
g86
sI10
g86
sI11
g86
sI12
g86
sI13
g86
sI14
g86
ssI1
(dp669
I0
g86
sI1
g34
sI2
g86
sI3
g86
sI4
g86
sI5
g86
sI6
g86
sI7
g86
sI8
g86
sI9
g86
sI10
g86
sI11
g86
sI12
g86
sI13
g86
sI14
g86
ssI2
(dp670
I0
g86
sI1
g34
sI2
g86
sI3
g86
sI4
g86
sI5
g34
sI6
g86
sI7
g86
sI8
g86
sI9
g86
sI10
g86
sI11
g86
sI12
g86
sI13
g86
sI14
g86
ssI3
(dp671
I0
g86
sI1
g34
sI2
g86
sI3
g86
sI4
g86
sI5
g34
sI6
g86
sI7
g86
sI8
g86
sI9
g86
sI10
g36
sI11
g86
sI12
g86
sI13
g86
sI14
g86
ssI4
(dp672
I0
g86
sI1
g34
sI2
g34
sI3
g86
sI4
g86
sI5
g34
sI6
g86
sI7
g86
sI8
g86
sI9
g86
sI10
g36
sI11
g86
sI12
g86
sI13
g86
sI14
g86
ssI5
(dp673
I0
g86
sI1
g34
sI2
g34
sI3
g86
sI4
g86
sI5
g34
sI6
g86
sI7
g86
sI8
g86
sI9
g34
sI10
g36
sI11
g86
sI12
g86
sI13
g86
sI14
g86
ssI6
(dp674
I0
g86
sI1
g34
sI2
g34
sI3
g86
sI4
g86
sI5
g34
sI6
g86
sI7
g86
sI8
g86
sI9
g34
sI10
g36
sI11
g36
sI12
g86
sI13
g86
sI14
g86
ssI7
(dp675
I0
g86
sI1
g34
sI2
g34
sI3
g86
sI4
g86
sI5
g34
sI6
g36
sI7
g86
sI8
g86
sI9
g34
sI10
g36
sI11
g36
sI12
g86
sI13
g86
sI14
g86
ssI8
(dp676
I0
g86
sI1
g34
sI2
g34
sI3
g86
sI4
g86
sI5
g34
sI6
g36
sI7
g34
sI8
g86
sI9
g34
sI10
g36
sI11
g36
sI12
g86
sI13
g86
sI14
g86
ssI9
(dp677
I0
g86
sI1
g34
sI2
g34
sI3
g86
sI4
g86
sI5
g34
sI6
g36
sI7
g34
sI8
g86
sI9
g34
sI10
g36
sI11
g36
sI12
g36
sI13
g86
sI14
g86
ssI10
(dp678
I0
g36
sI1
g34
sI2
g34
sI3
g86
sI4
g86
sI5
g34
sI6
g36
sI7
g34
sI8
g86
sI9
g34
sI10
g36
sI11
g36
sI12
g36
sI13
g86
sI14
g86
ssI11
(dp679
I0
g36
sI1
g34
sI2
g34
sI3
g35
sI4
g86
sI5
g34
sI6
g36
sI7
g34
sI8
g86
sI9
g34
sI10
g36
sI11
g36
sI12
g36
sI13
g86
sI14
g86
ssI12
(dp680
I0
g36
sI1
g34
sI2
g34
sI3
g35
sI4
g86
sI5
g34
sI6
g36
sI7
g34
sI8
g35
sI9
g34
sI10
g36
sI11
g36
sI12
g36
sI13
g86
sI14
g86
ssI13
(dp681
I0
g36
sI1
g34
sI2
g34
sI3
g35
sI4
g86
sI5
g34
sI6
g36
sI7
g34
sI8
g35
sI9
g34
sI10
g36
sI11
g36
sI12
g36
sI13
g86
sI14
g34
ssI14
(dp682
I0
g36
sI1
g34
sI2
g34
sI3
g35
sI4
g86
sI5
g34
sI6
g36
sI7
g34
sI8
g35
sI9
g34
sI10
g36
sI11
g36
sI12
g36
sI13
g35
sI14
g34
ssI15
(dp683
I0
g36
sI1
g34
sI2
g34
sI3
g35
sI4
g35
sI5
g34
sI6
g36
sI7
g34
sI8
g35
sI9
g34
sI10
g36
sI11
g36
sI12
g36
sI13
g35
sI14
g34
sssbI1
tp684
sI16
(g1
(g2
g3
Ntp685
Rp686
(dp687
g7
(lp688
g9
ag10
ag11
ag12
ag13
ag14
ag15
ag16
ag17
ag18
aS'10'
p689
aS'11'
p690
aS'12'
p691
aS'13'
p692
aS'14'
p693
aS'15'
p694
aS'16'
p695
aS'17'
p696
aS'18'
p697
aS'19'
p698
asg29
g30
sg31
I01
sg32
(dp699
I0
g36
sI1
g34
sI2
g35
sI3
g35
sI4
g36
sI5
g34
sI6
g34
sI7
g34
sI8
g36
sI9
g34
sI10
g36
sI11
g35
sI12
g35
sI13
g35
sI14
g34
sI15
g35
ssg37
g1
(g38
g3
Ntp700
Rp701
(dp702
g42
(dp703
I0
(dp704
sI1
(dp705
sI2
(dp706
sI3
(dp707
sI4
(dp708
sI5
(dp709
sI6
(dp710
sI7
(dp711
sI8
(dp712
sI9
(dp713
sI10
(dp714
sI11
(dp715
sI12
(dp716
sI13
(dp717
sI14
(dp718
sI15
(dp719
ssg52
g53
sg54
g53
sg55
(dp720
I0
(dp721
I9
(dp722
sI2
(dp723
sI12
(dp724
sI13
(dp725
sI14
(dp726
ssI1
(dp727
I2
(dp728
sI11
(dp729
ssI2
(dp730
I0
g723
sI1
g728
sI14
(dp731
sI9
(dp732
ssI3
(dp733
I10
(dp734
sI4
(dp735
sI14
(dp736
sI6
(dp737
sI7
(dp738
ssI4
(dp739
I11
(dp740
sI15
(dp741
sI3
g735
sI7
(dp742
ssI5
(dp743
I13
(dp744
sI15
(dp745
ssI6
(dp746
I11
(dp747
sI10
(dp748
sI3
g737
sI13
(dp749
ssI7
(dp750
I3
g738
sI4
g742
sI8
(dp751
sI10
(dp752
sI12
(dp753
sI13
(dp754
sI15
(dp755
ssI8
(dp756
I9
(dp757
sI11
(dp758
sI14
(dp759
sI7
g751
ssI9
(dp760
I0
g722
sI2
g732
sI8
g757
sI10
(dp761
sI11
(dp762
sI12
(dp763
ssI10
(dp764
I3
g734
sI6
g748
sI7
g752
sI9
g761
sI11
(dp765
sI12
(dp766
ssI11
(dp767
I1
g729
sI4
g740
sI6
g747
sI8
g758
sI9
g762
sI10
g765
ssI12
(dp768
I0
g724
sI9
g763
sI10
g766
sI7
g753
ssI13
(dp769
I0
g725
sI14
(dp770
sI5
g744
sI6
g749
sI7
g754
ssI14
(dp771
I0
g726
sI8
g759
sI2
g731
sI3
g736
sI13
g770
ssI15
(dp772
I4
g741
sI5
g745
sI7
g755
sssg37
(dp773
sg79
g53
sg80
g720
sbsg81
S'/home/mickael/Documents/projects/examination-scheduling/booth/plots/'
p774
sg83
(dp775
I0
(dp776
I0
g86
sI1
g86
sI2
g86
sI3
g86
sI4
g86
sI5
g86
sI6
g86
sI7
g86
sI8
g86
sI9
g86
sI10
g86
sI11
g86
sI12
g86
sI13
g86
sI14
g86
sI15
g86
ssI1
(dp777
I0
g86
sI1
g34
sI2
g86
sI3
g86
sI4
g86
sI5
g86
sI6
g86
sI7
g86
sI8
g86
sI9
g86
sI10
g86
sI11
g86
sI12
g86
sI13
g86
sI14
g86
sI15
g86
ssI2
(dp778
I0
g86
sI1
g34
sI2
g86
sI3
g86
sI4
g86
sI5
g86
sI6
g86
sI7
g86
sI8
g86
sI9
g34
sI10
g86
sI11
g86
sI12
g86
sI13
g86
sI14
g86
sI15
g86
ssI3
(dp779
I0
g36
sI1
g34
sI2
g86
sI3
g86
sI4
g86
sI5
g86
sI6
g86
sI7
g86
sI8
g86
sI9
g34
sI10
g86
sI11
g86
sI12
g86
sI13
g86
sI14
g86
sI15
g86
ssI4
(dp780
I0
g36
sI1
g34
sI2
g86
sI3
g86
sI4
g86
sI5
g34
sI6
g86
sI7
g86
sI8
g86
sI9
g34
sI10
g86
sI11
g86
sI12
g86
sI13
g86
sI14
g86
sI15
g86
ssI5
(dp781
I0
g36
sI1
g34
sI2
g86
sI3
g86
sI4
g86
sI5
g34
sI6
g86
sI7
g86
sI8
g86
sI9
g34
sI10
g36
sI11
g86
sI12
g86
sI13
g86
sI14
g86
sI15
g86
ssI6
(dp782
I0
g36
sI1
g34
sI2
g86
sI3
g86
sI4
g86
sI5
g34
sI6
g86
sI7
g34
sI8
g86
sI9
g34
sI10
g36
sI11
g86
sI12
g86
sI13
g86
sI14
g86
sI15
g86
ssI7
(dp783
I0
g36
sI1
g34
sI2
g86
sI3
g86
sI4
g86
sI5
g34
sI6
g86
sI7
g34
sI8
g86
sI9
g34
sI10
g36
sI11
g35
sI12
g86
sI13
g86
sI14
g86
sI15
g86
ssI8
(dp784
I0
g36
sI1
g34
sI2
g86
sI3
g86
sI4
g86
sI5
g34
sI6
g86
sI7
g34
sI8
g86
sI9
g34
sI10
g36
sI11
g35
sI12
g86
sI13
g86
sI14
g34
sI15
g86
ssI9
(dp785
I0
g36
sI1
g34
sI2
g86
sI3
g86
sI4
g36
sI5
g34
sI6
g86
sI7
g34
sI8
g86
sI9
g34
sI10
g36
sI11
g35
sI12
g86
sI13
g86
sI14
g34
sI15
g86
ssI10
(dp786
I0
g36
sI1
g34
sI2
g35
sI3
g86
sI4
g36
sI5
g34
sI6
g86
sI7
g34
sI8
g86
sI9
g34
sI10
g36
sI11
g35
sI12
g86
sI13
g86
sI14
g34
sI15
g86
ssI11
(dp787
I0
g36
sI1
g34
sI2
g35
sI3
g35
sI4
g36
sI5
g34
sI6
g86
sI7
g34
sI8
g86
sI9
g34
sI10
g36
sI11
g35
sI12
g86
sI13
g86
sI14
g34
sI15
g86
ssI12
(dp788
I0
g36
sI1
g34
sI2
g35
sI3
g35
sI4
g36
sI5
g34
sI6
g86
sI7
g34
sI8
g86
sI9
g34
sI10
g36
sI11
g35
sI12
g86
sI13
g35
sI14
g34
sI15
g86
ssI13
(dp789
I0
g36
sI1
g34
sI2
g35
sI3
g35
sI4
g36
sI5
g34
sI6
g86
sI7
g34
sI8
g86
sI9
g34
sI10
g36
sI11
g35
sI12
g86
sI13
g35
sI14
g34
sI15
g35
ssI14
(dp790
I0
g36
sI1
g34
sI2
g35
sI3
g35
sI4
g36
sI5
g34
sI6
g34
sI7
g34
sI8
g86
sI9
g34
sI10
g36
sI11
g35
sI12
g86
sI13
g35
sI14
g34
sI15
g35
ssI15
(dp791
I0
g36
sI1
g34
sI2
g35
sI3
g35
sI4
g36
sI5
g34
sI6
g34
sI7
g34
sI8
g86
sI9
g34
sI10
g36
sI11
g35
sI12
g35
sI13
g35
sI14
g34
sI15
g35
ssI16
(dp792
I0
g36
sI1
g34
sI2
g35
sI3
g35
sI4
g36
sI5
g34
sI6
g34
sI7
g34
sI8
g36
sI9
g34
sI10
g36
sI11
g35
sI12
g35
sI13
g35
sI14
g34
sI15
g35
sssbI2
tp793
sI17
(g1
(g2
g3
Ntp794
Rp795
(dp796
g7
(lp797
g9
ag10
ag11
ag12
ag13
ag14
ag15
ag16
ag17
ag18
aS'10'
p798
aS'11'
p799
aS'12'
p800
aS'13'
p801
aS'14'
p802
aS'15'
p803
aS'16'
p804
aS'17'
p805
aS'18'
p806
aS'19'
p807
asg29
g30
sg31
I01
sg32
(dp808
I0
g34
sI1
g34
sI2
S'green'
p809
sI3
g809
sI4
g35
sI5
g34
sI6
g36
sI7
g34
sI8
g36
sI9
g36
sI10
g809
sI11
g36
sI12
g34
sI13
g34
sI14
g36
sI15
g35
sI16
g35
ssg37
g1
(g38
g3
Ntp810
Rp811
(dp812
g42
(dp813
I0
(dp814
sI1
(dp815
sI2
(dp816
sI3
(dp817
sI4
(dp818
sI5
(dp819
sI6
(dp820
sI7
(dp821
sI8
(dp822
sI9
(dp823
sI10
(dp824
sI11
(dp825
sI12
(dp826
sI13
(dp827
sI14
(dp828
sI15
(dp829
sI16
(dp830
ssg52
g53
sg54
g53
sg55
(dp831
I0
(dp832
I2
(dp833
sI3
(dp834
sI4
(dp835
sI8
(dp836
sI10
(dp837
sI11
(dp838
sI14
(dp839
ssI1
(dp840
I10
(dp841
sI3
(dp842
sI4
(dp843
ssI2
(dp844
I0
g833
sI5
(dp845
sI7
(dp846
sI11
(dp847
sI12
(dp848
sI15
(dp849
sI16
(dp850
ssI3
(dp851
I0
g834
sI1
g842
sI6
(dp852
sI7
(dp853
sI9
(dp854
sI11
(dp855
sI15
(dp856
sI16
(dp857
ssI4
(dp858
I0
g835
sI1
g843
sI6
(dp859
sI10
(dp860
sI11
(dp861
sI13
(dp862
ssI5
(dp863
I8
(dp864
sI2
g845
sI11
(dp865
sI14
(dp866
ssI6
(dp867
I10
(dp868
sI3
g852
sI4
g859
sI13
(dp869
sI15
(dp870
ssI7
(dp871
I2
g846
sI3
g853
sI8
(dp872
sI9
(dp873
sI10
(dp874
sI15
(dp875
ssI8
(dp876
I0
g836
sI15
(dp877
sI12
(dp878
sI5
g864
sI7
g872
ssI9
(dp879
I16
(dp880
sI3
g854
sI12
(dp881
sI13
(dp882
sI7
g873
ssI10
(dp883
I0
g837
sI1
g841
sI4
g860
sI6
g868
sI7
g874
sI13
(dp884
ssI11
(dp885
I0
g838
sI2
g847
sI3
g855
sI4
g861
sI5
g865
sI12
(dp886
sI15
(dp887
ssI12
(dp888
I2
g848
sI8
g878
sI9
g881
sI11
g886
sI15
(dp889
sI16
(dp890
ssI13
(dp891
I9
g882
sI10
g884
sI4
g862
sI6
g869
ssI14
(dp892
I0
g839
sI5
g866
ssI15
(dp893
I2
g849
sI3
g856
sI6
g870
sI7
g875
sI8
g877
sI11
g887
sI12
g889
ssI16
(dp894
I9
g880
sI2
g850
sI3
g857
sI12
g890
sssg37
(dp895
sg79
g53
sg80
g831
sbsg81
S'/home/mickael/Documents/projects/examination-scheduling/booth/plots/'
p896
sg83
(dp897
I0
(dp898
I0
g86
sI1
g86
sI2
g86
sI3
g86
sI4
g86
sI5
g86
sI6
g86
sI7
g86
sI8
g86
sI9
g86
sI10
g86
sI11
g86
sI12
g86
sI13
g86
sI14
g86
sI15
g86
sI16
g86
ssI1
(dp899
I0
g86
sI1
g86
sI2
g86
sI3
g86
sI4
g86
sI5
g86
sI6
g86
sI7
g34
sI8
g86
sI9
g86
sI10
g86
sI11
g86
sI12
g86
sI13
g86
sI14
g86
sI15
g86
sI16
g86
ssI2
(dp900
I0
g86
sI1
g86
sI2
g86
sI3
g86
sI4
g86
sI5
g34
sI6
g86
sI7
g34
sI8
g86
sI9
g86
sI10
g86
sI11
g86
sI12
g86
sI13
g86
sI14
g86
sI15
g86
sI16
g86
ssI3
(dp901
I0
g86
sI1
g86
sI2
g86
sI3
g86
sI4
g86
sI5
g34
sI6
g86
sI7
g34
sI8
g86
sI9
g36
sI10
g86
sI11
g86
sI12
g86
sI13
g86
sI14
g86
sI15
g86
sI16
g86
ssI4
(dp902
I0
g86
sI1
g86
sI2
g86
sI3
g86
sI4
g86
sI5
g34
sI6
g86
sI7
g34
sI8
g86
sI9
g36
sI10
g86
sI11
g86
sI12
g34
sI13
g86
sI14
g86
sI15
g86
sI16
g86
ssI5
(dp903
I0
g86
sI1
g86
sI2
g86
sI3
g86
sI4
g86
sI5
g34
sI6
g86
sI7
g34
sI8
g86
sI9
g36
sI10
g86
sI11
g86
sI12
g34
sI13
g34
sI14
g86
sI15
g86
sI16
g86
ssI6
(dp904
I0
g86
sI1
g34
sI2
g86
sI3
g86
sI4
g86
sI5
g34
sI6
g86
sI7
g34
sI8
g86
sI9
g36
sI10
g86
sI11
g86
sI12
g34
sI13
g34
sI14
g86
sI15
g86
sI16
g86
ssI7
(dp905
I0
g86
sI1
g34
sI2
g86
sI3
g86
sI4
g86
sI5
g34
sI6
g86
sI7
g34
sI8
g86
sI9
g36
sI10
g86
sI11
g86
sI12
g34
sI13
g34
sI14
g36
sI15
g86
sI16
g86
ssI8
(dp906
I0
g86
sI1
g34
sI2
g86
sI3
g86
sI4
g86
sI5
g34
sI6
g36
sI7
g34
sI8
g86
sI9
g36
sI10
g86
sI11
g86
sI12
g34
sI13
g34
sI14
g36
sI15
g86
sI16
g86
ssI9
(dp907
I0
g86
sI1
g34
sI2
g86
sI3
g86
sI4
g35
sI5
g34
sI6
g36
sI7
g34
sI8
g86
sI9
g36
sI10
g86
sI11
g86
sI12
g34
sI13
g34
sI14
g36
sI15
g86
sI16
g86
ssI10
(dp908
I0
g86
sI1
g34
sI2
g86
sI3
g86
sI4
g35
sI5
g34
sI6
g36
sI7
g34
sI8
g86
sI9
g36
sI10
g86
sI11
g36
sI12
g34
sI13
g34
sI14
g36
sI15
g86
sI16
g86
ssI11
(dp909
I0
g86
sI1
g34
sI2
g86
sI3
g86
sI4
g35
sI5
g34
sI6
g36
sI7
g34
sI8
g86
sI9
g36
sI10
g86
sI11
g36
sI12
g34
sI13
g34
sI14
g36
sI15
g86
sI16
g35
ssI12
(dp910
I0
g86
sI1
g34
sI2
g86
sI3
g86
sI4
g35
sI5
g34
sI6
g36
sI7
g34
sI8
g36
sI9
g36
sI10
g86
sI11
g36
sI12
g34
sI13
g34
sI14
g36
sI15
g86
sI16
g35
ssI13
(dp911
I0
g86
sI1
g34
sI2
g809
sI3
g86
sI4
g35
sI5
g34
sI6
g36
sI7
g34
sI8
g36
sI9
g36
sI10
g86
sI11
g36
sI12
g34
sI13
g34
sI14
g36
sI15
g86
sI16
g35
ssI14
(dp912
I0
g86
sI1
g34
sI2
g809
sI3
g86
sI4
g35
sI5
g34
sI6
g36
sI7
g34
sI8
g36
sI9
g36
sI10
g809
sI11
g36
sI12
g34
sI13
g34
sI14
g36
sI15
g86
sI16
g35
ssI15
(dp913
I0
g34
sI1
g34
sI2
g809
sI3
g86
sI4
g35
sI5
g34
sI6
g36
sI7
g34
sI8
g36
sI9
g36
sI10
g809
sI11
g36
sI12
g34
sI13
g34
sI14
g36
sI15
g86
sI16
g35
ssI16
(dp914
I0
g34
sI1
g34
sI2
g809
sI3
g86
sI4
g35
sI5
g34
sI6
g36
sI7
g34
sI8
g36
sI9
g36
sI10
g809
sI11
g36
sI12
g34
sI13
g34
sI14
g36
sI15
g35
sI16
g35
ssI17
(dp915
I0
g34
sI1
g34
sI2
g809
sI3
g809
sI4
g35
sI5
g34
sI6
g36
sI7
g34
sI8
g36
sI9
g36
sI10
g809
sI11
g36
sI12
g34
sI13
g34
sI14
g36
sI15
g35
sI16
g35
sssbI1
tp916
sI18
(g1
(g2
g3
Ntp917
Rp918
(dp919
g7
(lp920
g9
ag10
ag11
ag12
ag13
ag14
ag15
ag16
ag17
ag18
aS'10'
p921
aS'11'
p922
aS'12'
p923
aS'13'
p924
aS'14'
p925
aS'15'
p926
aS'16'
p927
aS'17'
p928
aS'18'
p929
aS'19'
p930
asg29
g30
sg31
I01
sg32
(dp931
I0
g35
sI1
g35
sI2
g809
sI3
g36
sI4
g34
sI5
g36
sI6
g36
sI7
g809
sI8
g34
sI9
g34
sI10
g35
sI11
g35
sI12
g36
sI13
g809
sI14
g34
sI15
g34
sI16
g34
sI17
g35
ssg37
g1
(g38
g3
Ntp932
Rp933
(dp934
g42
(dp935
I0
(dp936
sI1
(dp937
sI2
(dp938
sI3
(dp939
sI4
(dp940
sI5
(dp941
sI6
(dp942
sI7
(dp943
sI8
(dp944
sI9
(dp945
sI10
(dp946
sI11
(dp947
sI12
(dp948
sI13
(dp949
sI14
(dp950
sI15
(dp951
sI16
(dp952
sI17
(dp953
ssg52
g53
sg54
g53
sg55
(dp954
I0
(dp955
I3
(dp956
sI5
(dp957
sI6
(dp958
sI9
(dp959
sI12
(dp960
sI13
(dp961
sI14
(dp962
sI16
(dp963
ssI1
(dp964
I2
(dp965
sI5
(dp966
sI6
(dp967
sI7
(dp968
sI8
(dp969
sI15
(dp970
sI16
(dp971
ssI2
(dp972
I1
g965
sI3
(dp973
sI5
(dp974
sI10
(dp975
sI11
(dp976
sI15
(dp977
sI16
(dp978
ssI3
(dp979
I0
g956
sI2
g973
sI4
(dp980
sI7
(dp981
sI9
(dp982
sI11
(dp983
sI13
(dp984
sI16
(dp985
ssI4
(dp986
I3
g980
sI5
(dp987
sI7
(dp988
sI11
(dp989
sI12
(dp990
sI13
(dp991
sI17
(dp992
ssI5
(dp993
I0
g957
sI1
g966
sI2
g974
sI4
g987
sI10
(dp994
sI11
(dp995
sI14
(dp996
sI16
(dp997
sI17
(dp998
ssI6
(dp999
I0
g958
sI1
g967
sI11
(dp1000
sI13
(dp1001
sI15
(dp1002
sI16
(dp1003
ssI7
(dp1004
I1
g968
sI3
g981
sI4
g988
sI17
(dp1005
sI9
(dp1006
ssI8
(dp1007
I1
g969
sI11
(dp1008
sI13
(dp1009
sI17
(dp1010
ssI9
(dp1011
I0
g959
sI3
g982
sI13
(dp1012
sI7
g1006
ssI10
(dp1013
I16
(dp1014
sI2
g975
sI12
(dp1015
sI5
g994
sI15
(dp1016
ssI11
(dp1017
I2
g976
sI3
g983
sI4
g989
sI5
g995
sI6
g1000
sI8
g1008
ssI12
(dp1018
I0
g960
sI10
g1015
sI4
g990
sI13
(dp1019
ssI13
(dp1020
I0
g961
sI3
g984
sI4
g991
sI6
g1001
sI8
g1009
sI9
g1012
sI12
g1019
sI16
(dp1021
ssI14
(dp1022
I0
g962
sI5
g996
ssI15
(dp1023
I1
g970
sI2
g977
sI10
g1016
sI6
g1002
ssI16
(dp1024
I0
g963
sI1
g971
sI2
g978
sI3
g985
sI5
g997
sI6
g1003
sI10
g1014
sI13
g1021
ssI17
(dp1025
I8
g1010
sI4
g992
sI5
g998
sI7
g1005
sssg37
(dp1026
sg79
g53
sg80
g954
sbsg81
S'/home/mickael/Documents/projects/examination-scheduling/booth/plots/'
p1027
sg83
(dp1028
I0
(dp1029
I0
g86
sI1
g86
sI2
g86
sI3
g86
sI4
g86
sI5
g86
sI6
g86
sI7
g86
sI8
g86
sI9
g86
sI10
g86
sI11
g86
sI12
g86
sI13
g86
sI14
g86
sI15
g86
sI16
g86
sI17
g86
ssI1
(dp1030
I0
g86
sI1
g86
sI2
g86
sI3
g86
sI4
g86
sI5
g86
sI6
g86
sI7
g86
sI8
g86
sI9
g86
sI10
g86
sI11
g86
sI12
g86
sI13
g86
sI14
g34
sI15
g86
sI16
g86
sI17
g86
ssI2
(dp1031
I0
g86
sI1
g86
sI2
g86
sI3
g86
sI4
g34
sI5
g86
sI6
g86
sI7
g86
sI8
g86
sI9
g86
sI10
g86
sI11
g86
sI12
g86
sI13
g86
sI14
g34
sI15
g86
sI16
g86
sI17
g86
ssI3
(dp1032
I0
g86
sI1
g86
sI2
g86
sI3
g86
sI4
g34
sI5
g36
sI6
g86
sI7
g86
sI8
g86
sI9
g86
sI10
g86
sI11
g86
sI12
g86
sI13
g86
sI14
g34
sI15
g86
sI16
g86
sI17
g86
ssI4
(dp1033
I0
g86
sI1
g86
sI2
g86
sI3
g86
sI4
g34
sI5
g36
sI6
g86
sI7
g86
sI8
g86
sI9
g86
sI10
g86
sI11
g35
sI12
g86
sI13
g86
sI14
g34
sI15
g86
sI16
g86
sI17
g86
ssI5
(dp1034
I0
g86
sI1
g86
sI2
g86
sI3
g86
sI4
g34
sI5
g36
sI6
g86
sI7
g86
sI8
g86
sI9
g34
sI10
g86
sI11
g35
sI12
g86
sI13
g86
sI14
g34
sI15
g86
sI16
g86
sI17
g86
ssI6
(dp1035
I0
g86
sI1
g86
sI2
g86
sI3
g86
sI4
g34
sI5
g36
sI6
g86
sI7
g86
sI8
g86
sI9
g34
sI10
g86
sI11
g35
sI12
g36
sI13
g86
sI14
g34
sI15
g86
sI16
g86
sI17
g86
ssI7
(dp1036
I0
g35
sI1
g86
sI2
g86
sI3
g86
sI4
g34
sI5
g36
sI6
g86
sI7
g86
sI8
g86
sI9
g34
sI10
g86
sI11
g35
sI12
g36
sI13
g86
sI14
g34
sI15
g86
sI16
g86
sI17
g86
ssI8
(dp1037
I0
g35
sI1
g86
sI2
g86
sI3
g86
sI4
g34
sI5
g36
sI6
g86
sI7
g86
sI8
g86
sI9
g34
sI10
g86
sI11
g35
sI12
g36
sI13
g86
sI14
g34
sI15
g86
sI16
g34
sI17
g86
ssI9
(dp1038
I0
g35
sI1
g86
sI2
g86
sI3
g86
sI4
g34
sI5
g36
sI6
g86
sI7
g86
sI8
g86
sI9
g34
sI10
g86
sI11
g35
sI12
g36
sI13
g86
sI14
g34
sI15
g86
sI16
g34
sI17
g35
ssI10
(dp1039
I0
g35
sI1
g86
sI2
g86
sI3
g86
sI4
g34
sI5
g36
sI6
g86
sI7
g86
sI8
g86
sI9
g34
sI10
g86
sI11
g35
sI12
g36
sI13
g809
sI14
g34
sI15
g86
sI16
g34
sI17
g35
ssI11
(dp1040
I0
g35
sI1
g86
sI2
g86
sI3
g86
sI4
g34
sI5
g36
sI6
g86
sI7
g86
sI8
g86
sI9
g34
sI10
g35
sI11
g35
sI12
g36
sI13
g809
sI14
g34
sI15
g86
sI16
g34
sI17
g35
ssI12
(dp1041
I0
g35
sI1
g35
sI2
g86
sI3
g86
sI4
g34
sI5
g36
sI6
g86
sI7
g86
sI8
g86
sI9
g34
sI10
g35
sI11
g35
sI12
g36
sI13
g809
sI14
g34
sI15
g86
sI16
g34
sI17
g35
ssI13
(dp1042
I0
g35
sI1
g35
sI2
g86
sI3
g36
sI4
g34
sI5
g36
sI6
g86
sI7
g86
sI8
g86
sI9
g34
sI10
g35
sI11
g35
sI12
g36
sI13
g809
sI14
g34
sI15
g86
sI16
g34
sI17
g35
ssI14
(dp1043
I0
g35
sI1
g35
sI2
g86
sI3
g36
sI4
g34
sI5
g36
sI6
g86
sI7
g86
sI8
g34
sI9
g34
sI10
g35
sI11
g35
sI12
g36
sI13
g809
sI14
g34
sI15
g86
sI16
g34
sI17
g35
ssI15
(dp1044
I0
g35
sI1
g35
sI2
g809
sI3
g36
sI4
g34
sI5
g36
sI6
g86
sI7
g86
sI8
g34
sI9
g34
sI10
g35
sI11
g35
sI12
g36
sI13
g809
sI14
g34
sI15
g86
sI16
g34
sI17
g35
ssI16
(dp1045
I0
g35
sI1
g35
sI2
g809
sI3
g36
sI4
g34
sI5
g36
sI6
g86
sI7
g809
sI8
g34
sI9
g34
sI10
g35
sI11
g35
sI12
g36
sI13
g809
sI14
g34
sI15
g86
sI16
g34
sI17
g35
ssI17
(dp1046
I0
g35
sI1
g35
sI2
g809
sI3
g36
sI4
g34
sI5
g36
sI6
g86
sI7
g809
sI8
g34
sI9
g34
sI10
g35
sI11
g35
sI12
g36
sI13
g809
sI14
g34
sI15
g34
sI16
g34
sI17
g35
ssI18
(dp1047
I0
g35
sI1
g35
sI2
g809
sI3
g36
sI4
g34
sI5
g36
sI6
g36
sI7
g809
sI8
g34
sI9
g34
sI10
g35
sI11
g35
sI12
g36
sI13
g809
sI14
g34
sI15
g34
sI16
g34
sI17
g35
sssbI2
tp1048
sI19
(g1
(g2
g3
Ntp1049
Rp1050
(dp1051
g7
(lp1052
g9
ag10
ag11
ag12
ag13
ag14
ag15
ag16
ag17
ag18
aS'10'
p1053
aS'11'
p1054
aS'12'
p1055
aS'13'
p1056
aS'14'
p1057
aS'15'
p1058
aS'16'
p1059
aS'17'
p1060
aS'18'
p1061
aS'19'
p1062
asg29
g30
sg31
I01
sg32
(dp1063
I0
g34
sI1
g34
sI2
g34
sI3
g34
sI4
g36
sI5
g34
sI6
g35
sI7
g36
sI8
g36
sI9
g34
sI10
g36
sI11
g34
sI12
g36
sI13
g35
sI14
g34
sI15
g35
sI16
g36
sI17
g35
sI18
g36
ssg37
g1
(g38
g3
Ntp1064
Rp1065
(dp1066
g42
(dp1067
I0
(dp1068
sI1
(dp1069
sI2
(dp1070
sI3
(dp1071
sI4
(dp1072
sI5
(dp1073
sI6
(dp1074
sI7
(dp1075
sI8
(dp1076
sI9
(dp1077
sI10
(dp1078
sI11
(dp1079
sI12
(dp1080
sI13
(dp1081
sI14
(dp1082
sI15
(dp1083
sI16
(dp1084
sI17
(dp1085
sI18
(dp1086
ssg52
g53
sg54
g53
sg55
(dp1087
I0
(dp1088
I16
(dp1089
sI17
(dp1090
sI12
(dp1091
ssI1
(dp1092
I17
(dp1093
sI7
(dp1094
ssI2
(dp1095
I4
(dp1096
sI6
(dp1097
sI7
(dp1098
sI12
(dp1099
sI13
(dp1100
sI16
(dp1101
sI17
(dp1102
sI18
(dp1103
ssI3
(dp1104
I16
(dp1105
sI18
(dp1106
sI13
(dp1107
sI15
(dp1108
ssI4
(dp1109
I17
(dp1110
sI2
g1096
sI11
(dp1111
ssI5
(dp1112
I8
(dp1113
sI16
(dp1114
sI18
(dp1115
ssI6
(dp1116
I2
g1097
sI7
(dp1117
sI10
(dp1118
sI14
(dp1119
sI16
(dp1120
sI18
(dp1121
ssI7
(dp1122
I1
g1094
sI2
g1098
sI6
g1117
sI9
(dp1123
sI11
(dp1124
sI15
(dp1125
ssI8
(dp1126
I5
g1113
sI14
(dp1127
sI15
(dp1128
ssI9
(dp1129
I16
(dp1130
sI10
(dp1131
sI15
(dp1132
sI7
g1123
ssI10
(dp1133
I9
g1131
sI6
g1118
sI15
(dp1134
ssI11
(dp1135
I4
g1111
sI13
(dp1136
sI7
g1124
ssI12
(dp1137
I0
g1091
sI2
g1099
sI13
(dp1138
ssI13
(dp1139
I11
g1136
sI16
(dp1140
sI2
g1100
sI3
g1107
sI12
g1138
ssI14
(dp1141
I8
g1127
sI17
(dp1142
sI6
g1119
sI15
(dp1143
ssI15
(dp1144
I3
g1108
sI7
g1125
sI8
g1128
sI9
g1132
sI10
g1134
sI14
g1143
ssI16
(dp1145
I0
g1089
sI2
g1101
sI3
g1105
sI5
g1114
sI6
g1120
sI9
g1130
sI13
g1140
ssI17
(dp1146
I0
g1090
sI1
g1093
sI2
g1102
sI4
g1110
sI14
g1142
sI18
(dp1147
ssI18
(dp1148
I17
g1147
sI2
g1103
sI3
g1106
sI5
g1115
sI6
g1121
sssg37
(dp1149
sg79
g53
sg80
g1087
sbsg81
S'/home/mickael/Documents/projects/examination-scheduling/booth/plots/'
p1150
sg83
(dp1151
I0
(dp1152
I0
g86
sI1
g86
sI2
g86
sI3
g86
sI4
g86
sI5
g86
sI6
g86
sI7
g86
sI8
g86
sI9
g86
sI10
g86
sI11
g86
sI12
g86
sI13
g86
sI14
g86
sI15
g86
sI16
g86
sI17
g86
sI18
g86
ssI1
(dp1153
I0
g86
sI1
g86
sI2
g86
sI3
g86
sI4
g86
sI5
g34
sI6
g86
sI7
g86
sI8
g86
sI9
g86
sI10
g86
sI11
g86
sI12
g86
sI13
g86
sI14
g86
sI15
g86
sI16
g86
sI17
g86
sI18
g86
ssI2
(dp1154
I0
g86
sI1
g86
sI2
g34
sI3
g86
sI4
g86
sI5
g34
sI6
g86
sI7
g86
sI8
g86
sI9
g86
sI10
g86
sI11
g86
sI12
g86
sI13
g86
sI14
g86
sI15
g86
sI16
g86
sI17
g86
sI18
g86
ssI3
(dp1155
I0
g86
sI1
g86
sI2
g34
sI3
g86
sI4
g86
sI5
g34
sI6
g86
sI7
g86
sI8
g86
sI9
g86
sI10
g86
sI11
g86
sI12
g36
sI13
g86
sI14
g86
sI15
g86
sI16
g86
sI17
g86
sI18
g86
ssI4
(dp1156
I0
g86
sI1
g86
sI2
g34
sI3
g34
sI4
g86
sI5
g34
sI6
g86
sI7
g86
sI8
g86
sI9
g86
sI10
g86
sI11
g86
sI12
g36
sI13
g86
sI14
g86
sI15
g86
sI16
g86
sI17
g86
sI18
g86
ssI5
(dp1157
I0
g86
sI1
g86
sI2
g34
sI3
g34
sI4
g86
sI5
g34
sI6
g86
sI7
g86
sI8
g86
sI9
g86
sI10
g86
sI11
g86
sI12
g36
sI13
g35
sI14
g86
sI15
g86
sI16
g86
sI17
g86
sI18
g86
ssI6
(dp1158
I0
g86
sI1
g86
sI2
g34
sI3
g34
sI4
g86
sI5
g34
sI6
g86
sI7
g86
sI8
g86
sI9
g34
sI10
g86
sI11
g86
sI12
g36
sI13
g35
sI14
g86
sI15
g86
sI16
g86
sI17
g86
sI18
g86
ssI7
(dp1159
I0
g86
sI1
g86
sI2
g34
sI3
g34
sI4
g86
sI5
g34
sI6
g86
sI7
g86
sI8
g86
sI9
g34
sI10
g36
sI11
g86
sI12
g36
sI13
g35
sI14
g86
sI15
g86
sI16
g86
sI17
g86
sI18
g86
ssI8
(dp1160
I0
g86
sI1
g86
sI2
g34
sI3
g34
sI4
g36
sI5
g34
sI6
g86
sI7
g86
sI8
g86
sI9
g34
sI10
g36
sI11
g86
sI12
g36
sI13
g35
sI14
g86
sI15
g86
sI16
g86
sI17
g86
sI18
g86
ssI9
(dp1161
I0
g86
sI1
g86
sI2
g34
sI3
g34
sI4
g36
sI5
g34
sI6
g86
sI7
g86
sI8
g86
sI9
g34
sI10
g36
sI11
g86
sI12
g36
sI13
g35
sI14
g34
sI15
g86
sI16
g86
sI17
g86
sI18
g86
ssI10
(dp1162
I0
g86
sI1
g86
sI2
g34
sI3
g34
sI4
g36
sI5
g34
sI6
g86
sI7
g86
sI8
g86
sI9
g34
sI10
g36
sI11
g34
sI12
g36
sI13
g35
sI14
g34
sI15
g86
sI16
g86
sI17
g86
sI18
g86
ssI11
(dp1163
I0
g86
sI1
g86
sI2
g34
sI3
g34
sI4
g36
sI5
g34
sI6
g35
sI7
g86
sI8
g86
sI9
g34
sI10
g36
sI11
g34
sI12
g36
sI13
g35
sI14
g34
sI15
g86
sI16
g86
sI17
g86
sI18
g86
ssI12
(dp1164
I0
g86
sI1
g34
sI2
g34
sI3
g34
sI4
g36
sI5
g34
sI6
g35
sI7
g86
sI8
g86
sI9
g34
sI10
g36
sI11
g34
sI12
g36
sI13
g35
sI14
g34
sI15
g86
sI16
g86
sI17
g86
sI18
g86
ssI13
(dp1165
I0
g86
sI1
g34
sI2
g34
sI3
g34
sI4
g36
sI5
g34
sI6
g35
sI7
g86
sI8
g36
sI9
g34
sI10
g36
sI11
g34
sI12
g36
sI13
g35
sI14
g34
sI15
g86
sI16
g86
sI17
g86
sI18
g86
ssI14
(dp1166
I0
g86
sI1
g34
sI2
g34
sI3
g34
sI4
g36
sI5
g34
sI6
g35
sI7
g36
sI8
g36
sI9
g34
sI10
g36
sI11
g34
sI12
g36
sI13
g35
sI14
g34
sI15
g86
sI16
g86
sI17
g86
sI18
g86
ssI15
(dp1167
I0
g34
sI1
g34
sI2
g34
sI3
g34
sI4
g36
sI5
g34
sI6
g35
sI7
g36
sI8
g36
sI9
g34
sI10
g36
sI11
g34
sI12
g36
sI13
g35
sI14
g34
sI15
g86
sI16
g86
sI17
g86
sI18
g86
ssI16
(dp1168
I0
g34
sI1
g34
sI2
g34
sI3
g34
sI4
g36
sI5
g34
sI6
g35
sI7
g36
sI8
g36
sI9
g34
sI10
g36
sI11
g34
sI12
g36
sI13
g35
sI14
g34
sI15
g35
sI16
g86
sI17
g86
sI18
g86
ssI17
(dp1169
I0
g34
sI1
g34
sI2
g34
sI3
g34
sI4
g36
sI5
g34
sI6
g35
sI7
g36
sI8
g36
sI9
g34
sI10
g36
sI11
g34
sI12
g36
sI13
g35
sI14
g34
sI15
g35
sI16
g36
sI17
g86
sI18
g86
ssI18
(dp1170
I0
g34
sI1
g34
sI2
g34
sI3
g34
sI4
g36
sI5
g34
sI6
g35
sI7
g36
sI8
g36
sI9
g34
sI10
g36
sI11
g34
sI12
g36
sI13
g35
sI14
g34
sI15
g35
sI16
g36
sI17
g35
sI18
g86
ssI19
(dp1171
I0
g34
sI1
g34
sI2
g34
sI3
g34
sI4
g36
sI5
g34
sI6
g35
sI7
g36
sI8
g36
sI9
g34
sI10
g36
sI11
g34
sI12
g36
sI13
g35
sI14
g34
sI15
g35
sI16
g36
sI17
g35
sI18
g36
sssbI2
tp1172
sI20
(g1
(g2
g3
Ntp1173
Rp1174
(dp1175
g7
(lp1176
g9
ag10
ag11
ag12
ag13
ag14
ag15
ag16
ag17
ag18
aS'10'
p1177
aS'11'
p1178
aS'12'
p1179
aS'13'
p1180
aS'14'
p1181
aS'15'
p1182
aS'16'
p1183
aS'17'
p1184
aS'18'
p1185
aS'19'
p1186
asg29
g30
sg31
I01
sg32
(dp1187
I0
g809
sI1
g36
sI2
g35
sI3
g34
sI4
g36
sI5
g35
sI6
g809
sI7
g36
sI8
g35
sI9
g36
sI10
g34
sI11
g34
sI12
g809
sI13
g34
sI14
g36
sI15
g36
sI16
g35
sI17
g809
sI18
g34
sI19
g34
ssg37
g1
(g38
g3
Ntp1188
Rp1189
(dp1190
g42
(dp1191
I0
(dp1192
sI1
(dp1193
sI2
(dp1194
sI3
(dp1195
sI4
(dp1196
sI5
(dp1197
sI6
(dp1198
sI7
(dp1199
sI8
(dp1200
sI9
(dp1201
sI10
(dp1202
sI11
(dp1203
sI12
(dp1204
sI13
(dp1205
sI14
(dp1206
sI15
(dp1207
sI16
(dp1208
sI17
(dp1209
sI18
(dp1210
sI19
(dp1211
ssg52
g53
sg54
g53
sg55
(dp1212
I0
(dp1213
I1
(dp1214
sI5
(dp1215
sI9
(dp1216
sI11
(dp1217
sI13
(dp1218
sI16
(dp1219
ssI1
(dp1220
I0
g1214
sI5
(dp1221
sI6
(dp1222
sI10
(dp1223
sI12
(dp1224
sI13
(dp1225
sI18
(dp1226
ssI2
(dp1227
I4
(dp1228
sI7
(dp1229
sI10
(dp1230
sI11
(dp1231
sI15
(dp1232
sI18
(dp1233
sI19
(dp1234
ssI3
(dp1235
I9
(dp1236
ssI4
(dp1237
I2
g1228
sI5
(dp1238
sI10
(dp1239
sI11
(dp1240
sI17
(dp1241
sI18
(dp1242
ssI5
(dp1243
I0
g1215
sI1
g1221
sI4
g1238
sI6
(dp1244
sI7
(dp1245
sI10
(dp1246
sI12
(dp1247
sI13
(dp1248
sI15
(dp1249
sI17
(dp1250
ssI6
(dp1251
I1
g1222
sI5
g1244
sI7
(dp1252
sI8
(dp1253
sI9
(dp1254
sI10
(dp1255
sI14
(dp1256
sI16
(dp1257
ssI7
(dp1258
I2
g1229
sI5
g1245
sI6
g1252
sI8
(dp1259
sI13
(dp1260
sI19
(dp1261
ssI8
(dp1262
I6
g1253
sI7
g1259
sI9
(dp1263
sI10
(dp1264
sI11
(dp1265
sI12
(dp1266
sI19
(dp1267
ssI9
(dp1268
I0
g1216
sI3
g1236
sI6
g1254
sI8
g1263
sI10
(dp1269
sI11
(dp1270
sI12
(dp1271
ssI10
(dp1272
I1
g1223
sI2
g1230
sI4
g1239
sI5
g1246
sI6
g1255
sI8
g1264
sI9
g1269
sI12
(dp1273
sI14
(dp1274
sI15
(dp1275
sI17
(dp1276
ssI11
(dp1277
I0
g1217
sI2
g1231
sI4
g1240
sI8
g1265
sI9
g1270
sI15
(dp1278
sI16
(dp1279
ssI12
(dp1280
I1
g1224
sI5
g1247
sI8
g1266
sI9
g1271
sI10
g1273
sI16
(dp1281
ssI13
(dp1282
I0
g1218
sI1
g1225
sI5
g1248
sI7
g1260
sI14
(dp1283
sI15
(dp1284
ssI14
(dp1285
I6
g1256
sI10
g1274
sI13
g1283
sI16
(dp1286
sI18
(dp1287
sI19
(dp1288
ssI15
(dp1289
I2
g1232
sI5
g1249
sI10
g1275
sI11
g1278
sI13
g1284
sI17
(dp1290
sI18
(dp1291
ssI16
(dp1292
I0
g1219
sI6
g1257
sI11
g1279
sI12
g1281
sI14
g1286
sI17
(dp1293
sI18
(dp1294
ssI17
(dp1295
I4
g1241
sI5
g1250
sI10
g1276
sI15
g1290
sI16
g1293
sI19
(dp1296
ssI18
(dp1297
I1
g1226
sI2
g1233
sI4
g1242
sI14
g1287
sI15
g1291
sI16
g1294
ssI19
(dp1298
I8
g1267
sI17
g1296
sI2
g1234
sI14
g1288
sI7
g1261
sssg37
(dp1299
sg79
g53
sg80
g1212
sbsg81
S'/home/mickael/Documents/projects/examination-scheduling/booth/plots/'
p1300
sg83
(dp1301
I0
(dp1302
I0
g86
sI1
g86
sI2
g86
sI3
g86
sI4
g86
sI5
g86
sI6
g86
sI7
g86
sI8
g86
sI9
g86
sI10
g86
sI11
g86
sI12
g86
sI13
g86
sI14
g86
sI15
g86
sI16
g86
sI17
g86
sI18
g86
sI19
g86
ssI1
(dp1303
I0
g86
sI1
g86
sI2
g86
sI3
g34
sI4
g86
sI5
g86
sI6
g86
sI7
g86
sI8
g86
sI9
g86
sI10
g86
sI11
g86
sI12
g86
sI13
g86
sI14
g86
sI15
g86
sI16
g86
sI17
g86
sI18
g86
sI19
g86
ssI2
(dp1304
I0
g86
sI1
g86
sI2
g86
sI3
g34
sI4
g86
sI5
g86
sI6
g86
sI7
g86
sI8
g86
sI9
g36
sI10
g86
sI11
g86
sI12
g86
sI13
g86
sI14
g86
sI15
g86
sI16
g86
sI17
g86
sI18
g86
sI19
g86
ssI3
(dp1305
I0
g86
sI1
g86
sI2
g86
sI3
g34
sI4
g86
sI5
g86
sI6
g86
sI7
g86
sI8
g86
sI9
g36
sI10
g86
sI11
g86
sI12
g86
sI13
g86
sI14
g86
sI15
g86
sI16
g86
sI17
g86
sI18
g34
sI19
g86
ssI4
(dp1306
I0
g86
sI1
g86
sI2
g86
sI3
g34
sI4
g86
sI5
g86
sI6
g86
sI7
g86
sI8
g86
sI9
g36
sI10
g86
sI11
g86
sI12
g86
sI13
g86
sI14
g86
sI15
g86
sI16
g86
sI17
g86
sI18
g34
sI19
g34
ssI5
(dp1307
I0
g86
sI1
g86
sI2
g86
sI3
g34
sI4
g86
sI5
g86
sI6
g86
sI7
g86
sI8
g35
sI9
g36
sI10
g86
sI11
g86
sI12
g86
sI13
g86
sI14
g86
sI15
g86
sI16
g86
sI17
g86
sI18
g34
sI19
g34
ssI6
(dp1308
I0
g86
sI1
g86
sI2
g86
sI3
g34
sI4
g86
sI5
g86
sI6
g86
sI7
g86
sI8
g35
sI9
g36
sI10
g86
sI11
g86
sI12
g86
sI13
g86
sI14
g86
sI15
g36
sI16
g86
sI17
g86
sI18
g34
sI19
g34
ssI7
(dp1309
I0
g86
sI1
g86
sI2
g86
sI3
g34
sI4
g36
sI5
g86
sI6
g86
sI7
g86
sI8
g35
sI9
g36
sI10
g86
sI11
g86
sI12
g86
sI13
g86
sI14
g86
sI15
g36
sI16
g86
sI17
g86
sI18
g34
sI19
g34
ssI8
(dp1310
I0
g86
sI1
g86
sI2
g86
sI3
g34
sI4
g36
sI5
g86
sI6
g86
sI7
g86
sI8
g35
sI9
g36
sI10
g86
sI11
g34
sI12
g86
sI13
g86
sI14
g86
sI15
g36
sI16
g86
sI17
g86
sI18
g34
sI19
g34
ssI9
(dp1311
I0
g86
sI1
g86
sI2
g35
sI3
g34
sI4
g36
sI5
g86
sI6
g86
sI7
g86
sI8
g35
sI9
g36
sI10
g86
sI11
g34
sI12
g86
sI13
g86
sI14
g86
sI15
g36
sI16
g86
sI17
g86
sI18
g34
sI19
g34
ssI10
(dp1312
I0
g86
sI1
g86
sI2
g35
sI3
g34
sI4
g36
sI5
g86
sI6
g86
sI7
g86
sI8
g35
sI9
g36
sI10
g86
sI11
g34
sI12
g86
sI13
g86
sI14
g36
sI15
g36
sI16
g86
sI17
g86
sI18
g34
sI19
g34
ssI11
(dp1313
I0
g86
sI1
g86
sI2
g35
sI3
g34
sI4
g36
sI5
g86
sI6
g86
sI7
g86
sI8
g35
sI9
g36
sI10
g34
sI11
g34
sI12
g86
sI13
g86
sI14
g36
sI15
g36
sI16
g86
sI17
g86
sI18
g34
sI19
g34
ssI12
(dp1314
I0
g86
sI1
g86
sI2
g35
sI3
g34
sI4
g36
sI5
g86
sI6
g809
sI7
g86
sI8
g35
sI9
g36
sI10
g34
sI11
g34
sI12
g86
sI13
g86
sI14
g36
sI15
g36
sI16
g86
sI17
g86
sI18
g34
sI19
g34
ssI13
(dp1315
I0
g86
sI1
g86
sI2
g35
sI3
g34
sI4
g36
sI5
g35
sI6
g809
sI7
g86
sI8
g35
sI9
g36
sI10
g34
sI11
g34
sI12
g86
sI13
g86
sI14
g36
sI15
g36
sI16
g86
sI17
g86
sI18
g34
sI19
g34
ssI14
(dp1316
I0
g86
sI1
g86
sI2
g35
sI3
g34
sI4
g36
sI5
g35
sI6
g809
sI7
g86
sI8
g35
sI9
g36
sI10
g34
sI11
g34
sI12
g809
sI13
g86
sI14
g36
sI15
g36
sI16
g86
sI17
g86
sI18
g34
sI19
g34
ssI15
(dp1317
I0
g809
sI1
g86
sI2
g35
sI3
g34
sI4
g36
sI5
g35
sI6
g809
sI7
g86
sI8
g35
sI9
g36
sI10
g34
sI11
g34
sI12
g809
sI13
g86
sI14
g36
sI15
g36
sI16
g86
sI17
g86
sI18
g34
sI19
g34
ssI16
(dp1318
I0
g809
sI1
g86
sI2
g35
sI3
g34
sI4
g36
sI5
g35
sI6
g809
sI7
g86
sI8
g35
sI9
g36
sI10
g34
sI11
g34
sI12
g809
sI13
g86
sI14
g36
sI15
g36
sI16
g86
sI17
g809
sI18
g34
sI19
g34
ssI17
(dp1319
I0
g809
sI1
g86
sI2
g35
sI3
g34
sI4
g36
sI5
g35
sI6
g809
sI7
g86
sI8
g35
sI9
g36
sI10
g34
sI11
g34
sI12
g809
sI13
g34
sI14
g36
sI15
g36
sI16
g86
sI17
g809
sI18
g34
sI19
g34
ssI18
(dp1320
I0
g809
sI1
g36
sI2
g35
sI3
g34
sI4
g36
sI5
g35
sI6
g809
sI7
g86
sI8
g35
sI9
g36
sI10
g34
sI11
g34
sI12
g809
sI13
g34
sI14
g36
sI15
g36
sI16
g86
sI17
g809
sI18
g34
sI19
g34
ssI19
(dp1321
I0
g809
sI1
g36
sI2
g35
sI3
g34
sI4
g36
sI5
g35
sI6
g809
sI7
g36
sI8
g35
sI9
g36
sI10
g34
sI11
g34
sI12
g809
sI13
g34
sI14
g36
sI15
g36
sI16
g86
sI17
g809
sI18
g34
sI19
g34
ssI20
(dp1322
I0
g809
sI1
g36
sI2
g35
sI3
g34
sI4
g36
sI5
g35
sI6
g809
sI7
g36
sI8
g35
sI9
g36
sI10
g34
sI11
g34
sI12
g809
sI13
g34
sI14
g36
sI15
g36
sI16
g35
sI17
g809
sI18
g34
sI19
g34
sssbI2
tp1323
s.