(dp0
I8
(ccopy_reg
_reconstructor
p1
(c__main__
ColorGraph
p2
c__builtin__
object
p3
Ntp4
Rp5
(dp6
S'ALL_COLOURS'
p7
(lp8
S'0'
p9
aS'1'
p10
aS'2'
p11
aS'3'
p12
aS'4'
p13
aS'5'
p14
aS'6'
p15
aS'7'
p16
aS'8'
p17
aS'9'
p18
aS'10'
p19
aS'11'
p20
aS'12'
p21
aS'13'
p22
aS'14'
p23
aS'15'
p24
aS'16'
p25
aS'17'
p26
aS'18'
p27
aS'19'
p28
asS'plotname'
p29
S'graphcolouring'
p30
sS'revert'
p31
I01
sS'colours'
p32
(dp33
I0
S'red'
p34
sI1
S'yellow'
p35
sI2
g35
sI3
S'blue'
p36
sI4
g35
sI5
g36
sI6
g36
sI7
g34
ssS'graph'
p37
g1
(cnetworkx.classes.graph
Graph
p38
g3
Ntp39
Rp40
(dp41
S'node'
p42
(dp43
I0
(dp44
sI1
(dp45
sI2
(dp46
sI3
(dp47
sI4
(dp48
sI5
(dp49
sI6
(dp50
sI7
(dp51
ssS'node_dict_factory'
p52
c__builtin__
dict
p53
sS'edge_attr_dict_factory'
p54
g53
sS'edge'
p55
(dp56
I0
(dp57
I1
(dp58
sI2
(dp59
sI4
(dp60
sI6
(dp61
ssI1
(dp62
I0
g58
sI5
(dp63
ssI2
(dp64
I0
g59
sI3
(dp65
sI5
(dp66
ssI3
(dp67
I2
g65
sI4
(dp68
sI7
(dp69
ssI4
(dp70
I0
g60
sI3
g68
sI7
(dp71
ssI5
(dp72
I1
g63
sI2
g66
sI7
(dp73
ssI6
(dp74
I0
g61
ssI7
(dp75
I3
g69
sI4
g71
sI5
g73
sssg37
(dp76
sS'adjlist_dict_factory'
p77
g53
sS'adj'
p78
g56
sbsS'DIRECTORY'
p79
S'plots/'
p80
sbI1
tp81
sI9
(g1
(g2
g3
Ntp82
Rp83
(dp84
g7
(lp85
g9
ag10
ag11
ag12
ag13
ag14
ag15
ag16
ag17
ag18
aS'10'
p86
aS'11'
p87
aS'12'
p88
aS'13'
p89
aS'14'
p90
aS'15'
p91
aS'16'
p92
aS'17'
p93
aS'18'
p94
aS'19'
p95
asg29
g30
sg31
I01
sg32
(dp96
I0
g36
sI1
g36
sI2
g36
sI3
g36
sI4
g34
sI5
g35
sI6
g34
sI7
g35
sI8
g34
ssg37
g1
(g38
g3
Ntp97
Rp98
(dp99
g42
(dp100
I0
(dp101
sI1
(dp102
sI2
(dp103
sI3
(dp104
sI4
(dp105
sI5
(dp106
sI6
(dp107
sI7
(dp108
sI8
(dp109
ssg52
g53
sg54
g53
sg55
(dp110
I0
(dp111
I8
(dp112
sI6
(dp113
ssI1
(dp114
I5
(dp115
ssI2
(dp116
I8
(dp117
sI4
(dp118
sI6
(dp119
ssI3
(dp120
I4
(dp121
sI5
(dp122
sI6
(dp123
sI7
(dp124
ssI4
(dp125
I2
g118
sI3
g121
sI5
(dp126
ssI5
(dp127
I1
g115
sI3
g122
sI4
g126
ssI6
(dp128
I0
g113
sI2
g119
sI3
g123
ssI7
(dp129
I8
(dp130
sI3
g124
ssI8
(dp131
I0
g112
sI2
g117
sI7
g130
sssg37
(dp132
sg77
g53
sg78
g110
sbsg79
g80
sbI1
tp133
sI10
(g1
(g2
g3
Ntp134
Rp135
(dp136
g7
(lp137
g9
ag10
ag11
ag12
ag13
ag14
ag15
ag16
ag17
ag18
aS'10'
p138
aS'11'
p139
aS'12'
p140
aS'13'
p141
aS'14'
p142
aS'15'
p143
aS'16'
p144
aS'17'
p145
aS'18'
p146
aS'19'
p147
asg29
g30
sg31
I01
sg32
(dp148
I0
g36
sI1
g34
sI2
g36
sI3
g36
sI4
g34
sI5
g36
sI6
g35
sI7
g35
sI8
g34
sI9
g34
ssg37
g1
(g38
g3
Ntp149
Rp150
(dp151
g42
(dp152
I0
(dp153
sI1
(dp154
sI2
(dp155
sI3
(dp156
sI4
(dp157
sI5
(dp158
sI6
(dp159
sI7
(dp160
sI8
(dp161
sI9
(dp162
ssg52
g53
sg54
g53
sg55
(dp163
I0
(dp164
I8
(dp165
sI4
(dp166
sI6
(dp167
sI7
(dp168
ssI1
(dp169
I2
(dp170
sI3
(dp171
sI5
(dp172
ssI2
(dp173
I8
(dp174
sI1
g170
sI9
(dp175
ssI3
(dp176
I1
g171
sI9
(dp177
sI7
(dp178
ssI4
(dp179
I0
g166
sI5
(dp180
ssI5
(dp181
I8
(dp182
sI1
g172
sI4
g180
sI6
(dp183
ssI6
(dp184
I0
g167
sI8
(dp185
sI5
g183
ssI7
(dp186
I0
g168
sI8
(dp187
sI3
g178
sI9
(dp188
ssI8
(dp189
I0
g165
sI2
g174
sI5
g182
sI6
g185
sI7
g187
ssI9
(dp190
I2
g175
sI3
g177
sI7
g188
sssg37
(dp191
sg77
g53
sg78
g163
sbsg79
g80
sbI1
tp192
sI11
(g1
(g2
g3
Ntp193
Rp194
(dp195
g7
(lp196
g9
ag10
ag11
ag12
ag13
ag14
ag15
ag16
ag17
ag18
aS'10'
p197
aS'11'
p198
aS'12'
p199
aS'13'
p200
aS'14'
p201
aS'15'
p202
aS'16'
p203
aS'17'
p204
aS'18'
p205
aS'19'
p206
asg29
g30
sg31
I01
sg32
(dp207
I0
g36
sI1
g34
sI2
g36
sI3
g36
sI4
g35
sI5
g36
sI6
g34
sI7
g34
sI8
g36
sI9
g35
sI10
g36
ssg37
g1
(g38
g3
Ntp208
Rp209
(dp210
g42
(dp211
I0
(dp212
sI1
(dp213
sI2
(dp214
sI3
(dp215
sI4
(dp216
sI5
(dp217
sI6
(dp218
sI7
(dp219
sI8
(dp220
sI9
(dp221
sI10
(dp222
ssg52
g53
sg54
g53
sg55
(dp223
I0
(dp224
sI1
(dp225
I9
(dp226
sI10
(dp227
sI4
(dp228
ssI2
(dp229
I4
(dp230
sI6
(dp231
sI7
(dp232
ssI3
(dp233
sI4
(dp234
I8
(dp235
sI1
g228
sI2
g230
sI6
(dp236
ssI5
(dp237
I9
(dp238
ssI6
(dp239
I8
(dp240
sI9
(dp241
sI2
g231
sI4
g236
ssI7
(dp242
I9
(dp243
sI2
g232
sI10
(dp244
ssI8
(dp245
I4
g235
sI6
g240
ssI9
(dp246
I1
g226
sI10
(dp247
sI5
g238
sI6
g241
sI7
g243
ssI10
(dp248
I1
g227
sI9
g247
sI7
g244
sssg37
(dp249
sg77
g53
sg78
g223
sbsg79
g80
sbI1
tp250
sI12
(g1
(g2
g3
Ntp251
Rp252
(dp253
g7
(lp254
g9
ag10
ag11
ag12
ag13
ag14
ag15
ag16
ag17
ag18
aS'10'
p255
aS'11'
p256
aS'12'
p257
aS'13'
p258
aS'14'
p259
aS'15'
p260
aS'16'
p261
aS'17'
p262
aS'18'
p263
aS'19'
p264
asg29
g30
sg31
I01
sg32
(dp265
I0
g34
sI1
g36
sI2
g36
sI3
g35
sI4
g35
sI5
g35
sI6
g36
sI7
g36
sI8
g34
sI9
g36
sI10
g34
sI11
g35
ssg37
g1
(g38
g3
Ntp266
Rp267
(dp268
g42
(dp269
I0
(dp270
sI1
(dp271
sI2
(dp272
sI3
(dp273
sI4
(dp274
sI5
(dp275
sI6
(dp276
sI7
(dp277
sI8
(dp278
sI9
(dp279
sI10
(dp280
sI11
(dp281
ssg52
g53
sg54
g53
sg55
(dp282
I0
(dp283
I9
(dp284
sI2
(dp285
sI3
(dp286
sI4
(dp287
sI5
(dp288
ssI1
(dp289
I10
(dp290
sI5
(dp291
ssI2
(dp292
I0
g285
sI10
(dp293
sI3
(dp294
sI5
(dp295
ssI3
(dp296
I0
g286
sI9
(dp297
sI2
g294
sI10
(dp298
ssI4
(dp299
I0
g287
sI6
(dp300
sI7
(dp301
ssI5
(dp302
I0
g288
sI1
g291
sI2
g295
sI7
(dp303
ssI6
(dp304
I4
g300
ssI7
(dp305
I11
(dp306
sI4
g301
sI5
g303
ssI8
(dp307
I9
(dp308
sI11
(dp309
ssI9
(dp310
I0
g284
sI8
g308
sI10
(dp311
sI3
g297
ssI10
(dp312
I11
(dp313
sI1
g290
sI2
g293
sI3
g298
sI9
g311
ssI11
(dp314
I8
g309
sI10
g313
sI7
g306
sssg37
(dp315
sg77
g53
sg78
g282
sbsg79
g80
sbI1
tp316
sI13
(g1
(g2
g3
Ntp317
Rp318
(dp319
g7
(lp320
g9
ag10
ag11
ag12
ag13
ag14
ag15
ag16
ag17
ag18
aS'10'
p321
aS'11'
p322
aS'12'
p323
aS'13'
p324
aS'14'
p325
aS'15'
p326
aS'16'
p327
aS'17'
p328
aS'18'
p329
aS'19'
p330
asg29
g30
sg31
I01
sg32
(dp331
I0
g35
sI1
g34
sI2
g35
sI3
g34
sI4
g34
sI5
g36
sI6
g36
sI7
g36
sI8
g36
sI9
g34
sI10
g35
sI11
g34
sI12
g36
ssg37
g1
(g38
g3
Ntp332
Rp333
(dp334
g42
(dp335
I0
(dp336
sI1
(dp337
sI2
(dp338
sI3
(dp339
sI4
(dp340
sI5
(dp341
sI6
(dp342
sI7
(dp343
sI8
(dp344
sI9
(dp345
sI10
(dp346
sI11
(dp347
sI12
(dp348
ssg52
g53
sg54
g53
sg55
(dp349
I0
(dp350
I1
(dp351
sI5
(dp352
ssI1
(dp353
I0
g351
sI10
(dp354
sI12
(dp355
ssI2
(dp356
I8
(dp357
sI9
(dp358
sI3
(dp359
sI12
(dp360
ssI3
(dp361
I2
g359
sI12
(dp362
sI10
(dp363
sI6
(dp364
ssI4
(dp365
I8
(dp366
sI12
(dp367
sI6
(dp368
ssI5
(dp369
I0
g352
sI9
(dp370
ssI6
(dp371
I9
(dp372
sI3
g364
sI4
g368
ssI7
(dp373
I9
(dp374
sI11
(dp375
ssI8
(dp376
I9
(dp377
sI2
g357
sI11
(dp378
sI4
g366
sI10
(dp379
ssI9
(dp380
I8
g377
sI2
g358
sI5
g370
sI6
g372
sI7
g374
ssI10
(dp381
I8
g379
sI1
g354
sI3
g363
sI12
(dp382
ssI11
(dp383
I8
g378
sI12
(dp384
sI7
g375
ssI12
(dp385
I1
g355
sI2
g360
sI3
g362
sI4
g367
sI10
g382
sI11
g384
sssg37
(dp386
sg77
g53
sg78
g349
sbsg79
g80
sbI1
tp387
sI14
(g1
(g2
g3
Ntp388
Rp389
(dp390
g7
(lp391
g9
ag10
ag11
ag12
ag13
ag14
ag15
ag16
ag17
ag18
aS'10'
p392
aS'11'
p393
aS'12'
p394
aS'13'
p395
aS'14'
p396
aS'15'
p397
aS'16'
p398
aS'17'
p399
aS'18'
p400
aS'19'
p401
asg29
g30
sg31
I01
sg32
(dp402
I0
g36
sI1
g36
sI2
g35
sI3
g36
sI4
g34
sI5
g36
sI6
g34
sI7
g35
sI8
g35
sI9
g34
sI10
g34
sI11
g36
sI12
g34
sI13
g36
ssg37
g1
(g38
g3
Ntp403
Rp404
(dp405
g42
(dp406
I0
(dp407
sI1
(dp408
sI2
(dp409
sI3
(dp410
sI4
(dp411
sI5
(dp412
sI6
(dp413
sI7
(dp414
sI8
(dp415
sI9
(dp416
sI10
(dp417
sI11
(dp418
sI12
(dp419
sI13
(dp420
ssg52
g53
sg54
g53
sg55
(dp421
I0
(dp422
I10
(dp423
sI12
(dp424
sI7
(dp425
ssI1
(dp426
I9
(dp427
sI10
(dp428
sI7
(dp429
ssI2
(dp430
I9
(dp431
sI4
(dp432
sI5
(dp433
sI12
(dp434
ssI3
(dp435
I8
(dp436
sI12
(dp437
sI7
(dp438
ssI4
(dp439
I8
(dp440
sI2
g432
sI5
(dp441
sI7
(dp442
ssI5
(dp443
I2
g433
sI4
g441
sI6
(dp444
sI7
(dp445
sI8
(dp446
sI9
(dp447
sI10
(dp448
sI12
(dp449
ssI6
(dp450
I8
(dp451
sI11
(dp452
sI13
(dp453
sI5
g444
sI7
(dp454
ssI7
(dp455
I0
g425
sI1
g429
sI3
g438
sI4
g442
sI5
g445
sI6
g454
sI9
(dp456
sI11
(dp457
ssI8
(dp458
I3
g436
sI4
g440
sI5
g446
sI6
g451
sI10
(dp459
sI12
(dp460
sI13
(dp461
ssI9
(dp462
I1
g427
sI2
g431
sI5
g447
sI7
g456
sI11
(dp463
sI13
(dp464
ssI10
(dp465
I0
g423
sI1
g428
sI5
g448
sI8
g459
ssI11
(dp466
I9
g463
sI12
(dp467
sI6
g452
sI7
g457
ssI12
(dp468
I0
g424
sI2
g434
sI3
g437
sI5
g449
sI8
g460
sI11
g467
sI13
(dp469
ssI13
(dp470
I8
g461
sI9
g464
sI12
g469
sI6
g453
sssg37
(dp471
sg77
g53
sg78
g421
sbsg79
g80
sbI2
tp472
sI15
(g1
(g2
g3
Ntp473
Rp474
(dp475
g7
(lp476
g9
ag10
ag11
ag12
ag13
ag14
ag15
ag16
ag17
ag18
aS'10'
p477
aS'11'
p478
aS'12'
p479
aS'13'
p480
aS'14'
p481
aS'15'
p482
aS'16'
p483
aS'17'
p484
aS'18'
p485
aS'19'
p486
asg29
g30
sg31
I01
sg32
(dp487
I0
g35
sI1
S'purple'
p488
sI2
g488
sI3
g36
sI4
g488
sI5
g34
sI6
g36
sI7
g35
sI8
g35
sI9
g36
sI10
g34
sI11
g35
sI12
g36
sI13
g36
sI14
g35
ssg37
g1
(g38
g3
Ntp489
Rp490
(dp491
g42
(dp492
I0
(dp493
sI1
(dp494
sI2
(dp495
sI3
(dp496
sI4
(dp497
sI5
(dp498
sI6
(dp499
sI7
(dp500
sI8
(dp501
sI9
(dp502
sI10
(dp503
sI11
(dp504
sI12
(dp505
sI13
(dp506
sI14
(dp507
ssg52
g53
sg54
g53
sg55
(dp508
I0
(dp509
I9
(dp510
sI2
(dp511
sI5
(dp512
sI6
(dp513
ssI1
(dp514
I8
(dp515
sI11
(dp516
sI12
(dp517
sI5
(dp518
sI13
(dp519
ssI2
(dp520
I0
g511
sI3
(dp521
sI7
(dp522
sI8
(dp523
sI10
(dp524
sI12
(dp525
ssI3
(dp526
I2
g521
sI10
(dp527
sI14
(dp528
ssI4
(dp529
I5
(dp530
sI6
(dp531
sI7
(dp532
sI9
(dp533
sI10
(dp534
sI14
(dp535
ssI5
(dp536
I0
g512
sI1
g518
sI4
g530
sI7
(dp537
sI9
(dp538
sI11
(dp539
sI12
(dp540
sI13
(dp541
sI14
(dp542
ssI6
(dp543
I0
g513
sI11
(dp544
sI4
g531
ssI7
(dp545
I9
(dp546
sI2
g522
sI4
g532
sI5
g537
sI13
(dp547
ssI8
(dp548
I1
g515
sI2
g523
sI12
(dp549
sI10
(dp550
sI13
(dp551
ssI9
(dp552
I0
g510
sI10
(dp553
sI4
g533
sI5
g538
sI7
g546
ssI10
(dp554
I2
g524
sI3
g527
sI4
g534
sI8
g550
sI9
g553
sI12
(dp555
sI13
(dp556
ssI11
(dp557
I1
g516
sI12
(dp558
sI5
g539
sI6
g544
sI13
(dp559
ssI12
(dp560
I1
g517
sI2
g525
sI5
g540
sI8
g549
sI10
g555
sI11
g558
ssI13
(dp561
I1
g519
sI5
g541
sI7
g547
sI8
g551
sI10
g556
sI11
g559
ssI14
(dp562
I3
g528
sI4
g535
sI5
g542
sssg37
(dp563
sg77
g53
sg78
g508
sbsg79
g80
sbI1
tp564
sI16
(g1
(g2
g3
Ntp565
Rp566
(dp567
g7
(lp568
g9
ag10
ag11
ag12
ag13
ag14
ag15
ag16
ag17
ag18
aS'10'
p569
aS'11'
p570
aS'12'
p571
aS'13'
p572
aS'14'
p573
aS'15'
p574
aS'16'
p575
aS'17'
p576
aS'18'
p577
aS'19'
p578
asg29
g30
sg31
I01
sg32
(dp579
I0
g35
sI1
g488
sI2
g34
sI3
g34
sI4
g36
sI5
g34
sI6
g36
sI7
g36
sI8
g35
sI9
g36
sI10
g488
sI11
g36
sI12
g35
sI13
g34
sI14
g34
sI15
g34
ssg37
g1
(g38
g3
Ntp580
Rp581
(dp582
g42
(dp583
I0
(dp584
sI1
(dp585
sI2
(dp586
sI3
(dp587
sI4
(dp588
sI5
(dp589
sI6
(dp590
sI7
(dp591
sI8
(dp592
sI9
(dp593
sI10
(dp594
sI11
(dp595
sI12
(dp596
sI13
(dp597
sI14
(dp598
sI15
(dp599
ssg52
g53
sg54
g53
sg55
(dp600
I0
(dp601
I3
(dp602
sI6
(dp603
sI15
(dp604
ssI1
(dp605
I8
(dp606
sI2
(dp607
sI11
(dp608
sI13
(dp609
sI15
(dp610
ssI2
(dp611
I1
g607
sI11
(dp612
sI4
(dp613
sI12
(dp614
sI9
(dp615
ssI3
(dp616
I0
g602
sI8
(dp617
sI4
(dp618
sI6
(dp619
sI12
(dp620
ssI4
(dp621
I8
(dp622
sI2
g613
sI3
g618
sI5
(dp623
ssI5
(dp624
I8
(dp625
sI9
(dp626
sI10
(dp627
sI11
(dp628
sI4
g623
ssI6
(dp629
I0
g603
sI8
(dp630
sI3
g619
ssI7
(dp631
I10
(dp632
sI12
(dp633
sI14
(dp634
ssI8
(dp635
I1
g606
sI3
g617
sI4
g622
sI5
g625
sI6
g630
sI9
(dp636
sI10
(dp637
ssI9
(dp638
I8
g636
sI2
g615
sI5
g626
sI14
(dp639
sI13
(dp640
ssI10
(dp641
I8
g637
sI11
(dp642
sI5
g627
sI14
(dp643
sI7
g632
ssI11
(dp644
I1
g608
sI2
g612
sI5
g628
sI10
g642
sI12
(dp645
sI15
(dp646
ssI12
(dp647
I2
g614
sI3
g620
sI7
g633
sI11
g645
sI13
(dp648
sI15
(dp649
ssI13
(dp650
I1
g609
sI12
g648
sI9
g640
ssI14
(dp651
I9
g639
sI10
g643
sI7
g634
ssI15
(dp652
I0
g604
sI1
g610
sI11
g646
sI12
g649
sssg37
(dp653
sg77
g53
sg78
g600
sbsg79
g80
sbI1
tp654
sI17
(g1
(g2
g3
Ntp655
Rp656
(dp657
g7
(lp658
g9
ag10
ag11
ag12
ag13
ag14
ag15
ag16
ag17
ag18
aS'10'
p659
aS'11'
p660
aS'12'
p661
aS'13'
p662
aS'14'
p663
aS'15'
p664
aS'16'
p665
aS'17'
p666
aS'18'
p667
aS'19'
p668
asg29
g30
sg31
I01
sg32
(dp669
I0
g34
sI1
g34
sI2
g35
sI3
g35
sI4
g36
sI5
g36
sI6
g35
sI7
g488
sI8
g488
sI9
g34
sI10
g488
sI11
g36
sI12
g36
sI13
g35
sI14
g34
sI15
g36
sI16
g34
ssg37
g1
(g38
g3
Ntp670
Rp671
(dp672
g42
(dp673
I0
(dp674
sI1
(dp675
sI2
(dp676
sI3
(dp677
sI4
(dp678
sI5
(dp679
sI6
(dp680
sI7
(dp681
sI8
(dp682
sI9
(dp683
sI10
(dp684
sI11
(dp685
sI12
(dp686
sI13
(dp687
sI14
(dp688
sI15
(dp689
sI16
(dp690
ssg52
g53
sg54
g53
sg55
(dp691
I0
(dp692
I8
(dp693
sI4
(dp694
sI5
(dp695
sI6
(dp696
ssI1
(dp697
I11
(dp698
sI3
(dp699
sI12
(dp700
sI6
(dp701
sI7
(dp702
ssI2
(dp703
I16
(dp704
sI10
(dp705
sI15
(dp706
sI14
(dp707
sI7
(dp708
ssI3
(dp709
I1
g699
sI7
(dp710
sI8
(dp711
sI11
(dp712
sI15
(dp713
sI16
(dp714
ssI4
(dp715
I0
g694
sI6
(dp716
sI9
(dp717
sI10
(dp718
sI13
(dp719
sI16
(dp720
ssI5
(dp721
I0
g695
ssI6
(dp722
I0
g696
sI1
g701
sI4
g716
sI8
(dp723
sI11
(dp724
sI15
(dp725
ssI7
(dp726
I1
g702
sI2
g708
sI3
g710
sI14
(dp727
sI15
(dp728
sI16
(dp729
ssI8
(dp730
I0
g693
sI3
g711
sI6
g723
sI9
(dp731
sI11
(dp732
sI12
(dp733
sI13
(dp734
sI15
(dp735
ssI9
(dp736
I8
g731
sI10
(dp737
sI4
g717
ssI10
(dp738
I9
g737
sI2
g705
sI11
(dp739
sI4
g718
sI14
(dp740
ssI11
(dp741
I8
g732
sI1
g698
sI10
g739
sI3
g712
sI6
g724
ssI12
(dp742
I8
g733
sI1
g700
ssI13
(dp743
I8
g734
sI4
g719
sI14
(dp744
ssI14
(dp745
I2
g707
sI15
(dp746
sI13
g744
sI10
g740
sI7
g727
ssI15
(dp747
I2
g706
sI3
g713
sI6
g725
sI7
g728
sI8
g735
sI14
g746
ssI16
(dp748
I2
g704
sI3
g714
sI4
g720
sI7
g729
sssg37
(dp749
sg77
g53
sg78
g691
sbsg79
g80
sbI1
tp750
sI18
(g1
(g2
g3
Ntp751
Rp752
(dp753
g7
(lp754
g9
ag10
ag11
ag12
ag13
ag14
ag15
ag16
ag17
ag18
aS'10'
p755
aS'11'
p756
aS'12'
p757
aS'13'
p758
aS'14'
p759
aS'15'
p760
aS'16'
p761
aS'17'
p762
aS'18'
p763
aS'19'
p764
asg29
g30
sg31
I01
sg32
(dp765
I0
g35
sI1
g36
sI2
g488
sI3
g36
sI4
g35
sI5
g36
sI6
g34
sI7
g488
sI8
g36
sI9
g36
sI10
g34
sI11
g34
sI12
g36
sI13
g34
sI14
g35
sI15
g36
sI16
g35
sI17
g35
ssg37
g1
(g38
g3
Ntp766
Rp767
(dp768
g42
(dp769
I0
(dp770
sI1
(dp771
sI2
(dp772
sI3
(dp773
sI4
(dp774
sI5
(dp775
sI6
(dp776
sI7
(dp777
sI8
(dp778
sI9
(dp779
sI10
(dp780
sI11
(dp781
sI12
(dp782
sI13
(dp783
sI14
(dp784
sI15
(dp785
sI16
(dp786
sI17
(dp787
ssg52
g53
sg54
g53
sg55
(dp788
I0
(dp789
I1
(dp790
sI2
(dp791
sI5
(dp792
sI8
(dp793
sI9
(dp794
sI11
(dp795
sI13
(dp796
sI15
(dp797
ssI1
(dp798
I0
g790
sI17
(dp799
sI2
(dp800
ssI2
(dp801
I0
g791
sI1
g800
sI4
(dp802
sI8
(dp803
sI10
(dp804
sI11
(dp805
sI13
(dp806
sI15
(dp807
ssI3
(dp808
I16
(dp809
sI10
(dp810
sI13
(dp811
ssI4
(dp812
I8
(dp813
sI2
g802
sI12
(dp814
sI13
(dp815
sI7
(dp816
ssI5
(dp817
I0
g792
sI7
(dp818
sI11
(dp819
sI13
(dp820
sI14
(dp821
sI17
(dp822
ssI6
(dp823
I16
(dp824
sI15
(dp825
sI12
(dp826
sI7
(dp827
ssI7
(dp828
I4
g816
sI5
g818
sI6
g827
sI9
(dp829
sI11
(dp830
sI12
(dp831
sI13
(dp832
sI14
(dp833
sI17
(dp834
ssI8
(dp835
I0
g793
sI2
g803
sI4
g813
sI10
(dp836
sI11
(dp837
sI13
(dp838
sI14
(dp839
sI16
(dp840
ssI9
(dp841
I0
g794
sI17
(dp842
sI13
(dp843
sI7
g829
ssI10
(dp844
I2
g804
sI3
g810
sI8
g836
sI15
(dp845
sI16
(dp846
sI17
(dp847
ssI11
(dp848
I0
g795
sI2
g805
sI5
g819
sI7
g830
sI8
g837
sI14
(dp849
ssI12
(dp850
I4
g814
sI6
g826
sI7
g831
sI13
(dp851
sI14
(dp852
sI16
(dp853
ssI13
(dp854
I0
g796
sI2
g806
sI3
g811
sI4
g815
sI5
g820
sI7
g832
sI8
g838
sI9
g843
sI12
g851
sI15
(dp855
sI16
(dp856
sI17
(dp857
ssI14
(dp858
I5
g821
sI7
g833
sI8
g839
sI11
g849
sI12
g852
sI15
(dp859
ssI15
(dp860
I0
g797
sI2
g807
sI6
g825
sI10
g845
sI13
g855
sI14
g859
ssI16
(dp861
I3
g809
sI6
g824
sI8
g840
sI10
g846
sI12
g853
sI13
g856
ssI17
(dp862
I1
g799
sI5
g822
sI7
g834
sI9
g842
sI10
g847
sI13
g857
sssg37
(dp863
sg77
g53
sg78
g788
sbsg79
g80
sbI2
tp864
sI19
(g1
(g2
g3
Ntp865
Rp866
(dp867
g7
(lp868
g9
ag10
ag11
ag12
ag13
ag14
ag15
ag16
ag17
ag18
aS'10'
p869
aS'11'
p870
aS'12'
p871
aS'13'
p872
aS'14'
p873
aS'15'
p874
aS'16'
p875
aS'17'
p876
aS'18'
p877
aS'19'
p878
asg29
g30
sg31
I01
sg32
(dp879
I0
g34
sI1
g35
sI2
g36
sI3
g36
sI4
g488
sI5
g36
sI6
g36
sI7
g34
sI8
g36
sI9
g34
sI10
g35
sI11
g35
sI12
g34
sI13
g34
sI14
g34
sI15
g34
sI16
g36
sI17
g35
sI18
g488
ssg37
g1
(g38
g3
Ntp880
Rp881
(dp882
g42
(dp883
I0
(dp884
sI1
(dp885
sI2
(dp886
sI3
(dp887
sI4
(dp888
sI5
(dp889
sI6
(dp890
sI7
(dp891
sI8
(dp892
sI9
(dp893
sI10
(dp894
sI11
(dp895
sI12
(dp896
sI13
(dp897
sI14
(dp898
sI15
(dp899
sI16
(dp900
sI17
(dp901
sI18
(dp902
ssg52
g53
sg54
g53
sg55
(dp903
I0
(dp904
I1
(dp905
sI3
(dp906
sI4
(dp907
sI5
(dp908
sI6
(dp909
sI10
(dp910
sI11
(dp911
ssI1
(dp912
I0
g905
sI4
(dp913
sI7
(dp914
sI8
(dp915
sI12
(dp916
sI15
(dp917
sI16
(dp918
ssI2
(dp919
I18
(dp920
sI11
(dp921
sI12
(dp922
ssI3
(dp923
I0
g906
sI9
(dp924
sI17
(dp925
sI13
(dp926
sI15
(dp927
ssI4
(dp928
I0
g907
sI1
g913
sI5
(dp929
sI6
(dp930
sI14
(dp931
sI16
(dp932
sI17
(dp933
ssI5
(dp934
I0
g908
sI18
(dp935
sI4
g929
sI13
(dp936
sI14
(dp937
ssI6
(dp938
I0
g909
sI4
g930
sI7
(dp939
sI9
(dp940
sI15
(dp941
sI18
(dp942
ssI7
(dp943
I1
g914
sI6
g939
sI10
(dp944
sI11
(dp945
sI17
(dp946
sI18
(dp947
ssI8
(dp948
I1
g915
sI10
(dp949
sI14
(dp950
sI15
(dp951
ssI9
(dp952
I16
(dp953
sI10
(dp954
sI3
g924
sI6
g940
ssI10
(dp955
I0
g910
sI7
g944
sI8
g949
sI9
g954
sI13
(dp956
sI15
(dp957
sI18
(dp958
ssI11
(dp959
I0
g911
sI2
g921
sI18
(dp960
sI14
(dp961
sI7
g945
ssI12
(dp962
I16
(dp963
sI1
g916
sI2
g922
sI17
(dp964
ssI13
(dp965
I3
g926
sI5
g936
sI10
g956
sI16
(dp966
sI17
(dp967
sI18
(dp968
ssI14
(dp969
I8
g950
sI11
g961
sI4
g931
sI5
g937
ssI15
(dp970
I8
g951
sI1
g917
sI10
g957
sI3
g927
sI6
g941
ssI16
(dp971
I1
g918
sI4
g932
sI9
g953
sI12
g963
sI13
g966
sI17
(dp972
ssI17
(dp973
I3
g925
sI4
g933
sI7
g946
sI12
g964
sI13
g967
sI16
g972
ssI18
(dp974
I2
g920
sI5
g935
sI6
g942
sI7
g947
sI10
g958
sI11
g960
sI13
g968
sssg37
(dp975
sg77
g53
sg78
g903
sbsg79
g80
sbI1
tp976
sI20
(g1
(g2
g3
Ntp977
Rp978
(dp979
g7
(lp980
g9
ag10
ag11
ag12
ag13
ag14
ag15
ag16
ag17
ag18
aS'10'
p981
aS'11'
p982
aS'12'
p983
aS'13'
p984
aS'14'
p985
aS'15'
p986
aS'16'
p987
aS'17'
p988
aS'18'
p989
aS'19'
p990
asg29
g30
sg31
I01
sg32
(dp991
I0
g36
sI1
g36
sI2
g36
sI3
g35
sI4
g36
sI5
g34
sI6
g488
sI7
g34
sI8
g34
sI9
g35
sI10
g36
sI11
g488
sI12
g488
sI13
g34
sI14
g36
sI15
g36
sI16
g34
sI17
g35
sI18
g34
sI19
g35
ssg37
g1
(g38
g3
Ntp992
Rp993
(dp994
g42
(dp995
I0
(dp996
sI1
(dp997
sI2
(dp998
sI3
(dp999
sI4
(dp1000
sI5
(dp1001
sI6
(dp1002
sI7
(dp1003
sI8
(dp1004
sI9
(dp1005
sI10
(dp1006
sI11
(dp1007
sI12
(dp1008
sI13
(dp1009
sI14
(dp1010
sI15
(dp1011
sI16
(dp1012
sI17
(dp1013
sI18
(dp1014
sI19
(dp1015
ssg52
g53
sg54
g53
sg55
(dp1016
I0
(dp1017
I18
(dp1018
sI6
(dp1019
ssI1
(dp1020
I16
(dp1021
sI13
(dp1022
sI6
(dp1023
ssI2
(dp1024
I3
(dp1025
sI12
(dp1026
sI7
(dp1027
ssI3
(dp1028
I2
g1025
sI4
(dp1029
sI5
(dp1030
sI12
(dp1031
sI13
(dp1032
sI14
(dp1033
sI16
(dp1034
ssI4
(dp1035
I17
(dp1036
sI18
(dp1037
sI3
g1029
sI12
(dp1038
ssI5
(dp1039
I3
g1030
sI6
(dp1040
sI9
(dp1041
sI11
(dp1042
sI12
(dp1043
sI14
(dp1044
sI19
(dp1045
ssI6
(dp1046
I0
g1019
sI1
g1023
sI5
g1040
sI13
(dp1047
sI15
(dp1048
sI16
(dp1049
sI17
(dp1050
sI19
(dp1051
ssI7
(dp1052
I2
g1027
sI12
(dp1053
sI15
(dp1054
ssI8
(dp1055
I10
(dp1056
sI11
(dp1057
sI14
(dp1058
ssI9
(dp1059
I5
g1041
sI10
(dp1060
sI11
(dp1061
sI15
(dp1062
sI16
(dp1063
sI18
(dp1064
ssI10
(dp1065
I8
g1056
sI9
g1060
sI11
(dp1066
sI13
(dp1067
sI19
(dp1068
ssI11
(dp1069
I5
g1042
sI8
g1057
sI9
g1061
sI10
g1066
sI18
(dp1070
sI19
(dp1071
ssI12
(dp1072
I2
g1026
sI3
g1031
sI4
g1038
sI5
g1043
sI7
g1053
sI17
(dp1073
ssI13
(dp1074
I1
g1022
sI3
g1032
sI6
g1047
sI10
g1067
sI15
(dp1075
sI19
(dp1076
ssI14
(dp1077
I8
g1058
sI17
(dp1078
sI3
g1033
sI5
g1044
ssI15
(dp1079
I16
(dp1080
sI9
g1062
sI13
g1075
sI6
g1048
sI7
g1054
ssI16
(dp1081
I1
g1021
sI3
g1034
sI6
g1049
sI9
g1063
sI15
g1080
sI19
(dp1082
ssI17
(dp1083
I12
g1073
sI18
(dp1084
sI4
g1036
sI14
g1078
sI6
g1050
ssI18
(dp1085
I0
g1018
sI9
g1064
sI11
g1070
sI4
g1037
sI17
g1084
ssI19
(dp1086
I5
g1045
sI6
g1051
sI10
g1068
sI11
g1071
sI13
g1076
sI16
g1082
sssg37
(dp1087
sg77
g53
sg78
g1016
sbsg79
g80
sbI1
tp1088
s.