(dp0
I9
(ccopy_reg
_reconstructor
p1
(c__main__
ColorGraph
p2
c__builtin__
object
p3
Ntp4
Rp5
(dp6
S'ALL_COLOURS'
p7
(lp8
S'0'
p9
aS'1'
p10
aS'2'
p11
aS'3'
p12
aS'4'
p13
aS'5'
p14
aS'6'
p15
aS'7'
p16
aS'8'
p17
aS'9'
p18
aS'10'
p19
aS'11'
p20
aS'12'
p21
aS'13'
p22
aS'14'
p23
aS'15'
p24
aS'16'
p25
aS'17'
p26
aS'18'
p27
aS'19'
p28
asS'plotname'
p29
S'graphcolouring'
p30
sS'revert'
p31
I01
sS'colours'
p32
(dp33
I0
S'red'
p34
sI1
g34
sI2
S'blue'
p35
sI3
g35
sI4
g34
sI5
g35
sI6
g34
sI7
g35
sI8
g35
ssS'graph'
p36
g1
(cnetworkx.classes.graph
Graph
p37
g3
Ntp38
Rp39
(dp40
S'node'
p41
(dp42
I0
(dp43
sI1
(dp44
sI2
(dp45
sI3
(dp46
sI4
(dp47
sI5
(dp48
sI6
(dp49
sI7
(dp50
sI8
(dp51
ssS'node_dict_factory'
p52
c__builtin__
dict
p53
sS'edge_attr_dict_factory'
p54
g53
sS'edge'
p55
(dp56
I0
(dp57
I5
(dp58
sI7
(dp59
ssI1
(dp60
I7
(dp61
ssI2
(dp62
I4
(dp63
ssI3
(dp64
I6
(dp65
ssI4
(dp66
I2
g63
sI7
(dp67
ssI5
(dp68
I0
g58
sI6
(dp69
ssI6
(dp70
I8
(dp71
sI3
g65
sI5
g69
ssI7
(dp72
I0
g59
sI1
g61
sI4
g67
ssI8
(dp73
I6
g71
sssg36
(dp74
sS'adjlist_dict_factory'
p75
g53
sS'adj'
p76
g56
sbsS'DIRECTORY'
p77
S'plots/'
p78
sbI1
tp79
sI10
(g1
(g2
g3
Ntp80
Rp81
(dp82
g7
(lp83
g9
ag10
ag11
ag12
ag13
ag14
ag15
ag16
ag17
ag18
aS'10'
p84
aS'11'
p85
aS'12'
p86
aS'13'
p87
aS'14'
p88
aS'15'
p89
aS'16'
p90
aS'17'
p91
aS'18'
p92
aS'19'
p93
asg29
g30
sg31
I01
sg32
(dp94
I0
g35
sI1
g35
sI2
S'purple'
p95
sI3
g35
sI4
g34
sI5
g95
sI6
g35
sI7
g35
sI8
S'yellow'
p96
sI9
g34
ssg36
g1
(g37
g3
Ntp97
Rp98
(dp99
g41
(dp100
I0
(dp101
sI1
(dp102
sI2
(dp103
sI3
(dp104
sI4
(dp105
sI5
(dp106
sI6
(dp107
sI7
(dp108
sI8
(dp109
sI9
(dp110
ssg52
g53
sg54
g53
sg55
(dp111
I0
(dp112
I2
(dp113
sI5
(dp114
ssI1
(dp115
I8
(dp116
sI9
(dp117
sI2
(dp118
sI4
(dp119
ssI2
(dp120
I0
g113
sI1
g118
sI4
(dp121
sI8
(dp122
sI9
(dp123
ssI3
(dp124
I8
(dp125
sI4
(dp126
sI5
(dp127
ssI4
(dp128
I8
(dp129
sI1
g119
sI2
g121
sI3
g126
sI7
(dp130
ssI5
(dp131
I0
g114
sI3
g127
sI6
(dp132
sI7
(dp133
sI8
(dp134
sI9
(dp135
ssI6
(dp136
I9
(dp137
sI5
g132
ssI7
(dp138
I4
g130
sI5
g133
ssI8
(dp139
I1
g116
sI2
g122
sI3
g125
sI4
g129
sI5
g134
sI9
(dp140
ssI9
(dp141
I8
g140
sI1
g117
sI2
g123
sI5
g135
sI6
g137
sssg36
(dp142
sg75
g53
sg76
g111
sbsg77
g78
sbI1
tp143
sI11
(g1
(g2
g3
Ntp144
Rp145
(dp146
g7
(lp147
g9
ag10
ag11
ag12
ag13
ag14
ag15
ag16
ag17
ag18
aS'10'
p148
aS'11'
p149
aS'12'
p150
aS'13'
p151
aS'14'
p152
aS'15'
p153
aS'16'
p154
aS'17'
p155
aS'18'
p156
aS'19'
p157
asg29
g30
sg31
I01
sg32
(dp158
I0
g34
sI1
g96
sI2
g34
sI3
g35
sI4
g35
sI5
g35
sI6
g34
sI7
g34
sI8
g96
sI9
g35
sI10
g96
ssg36
g1
(g37
g3
Ntp159
Rp160
(dp161
g41
(dp162
I0
(dp163
sI1
(dp164
sI2
(dp165
sI3
(dp166
sI4
(dp167
sI5
(dp168
sI6
(dp169
sI7
(dp170
sI8
(dp171
sI9
(dp172
sI10
(dp173
ssg52
g53
sg54
g53
sg55
(dp174
I0
(dp175
I8
(dp176
sI10
(dp177
sI3
(dp178
ssI1
(dp179
I3
(dp180
sI5
(dp181
sI6
(dp182
ssI2
(dp183
I10
(dp184
sI3
(dp185
sI4
(dp186
sI5
(dp187
ssI3
(dp188
I0
g178
sI1
g180
sI2
g185
sI10
(dp189
sI7
(dp190
ssI4
(dp191
I8
(dp192
sI2
g186
sI10
(dp193
sI6
(dp194
ssI5
(dp195
I1
g181
sI2
g187
sI7
(dp196
ssI6
(dp197
I8
(dp198
sI1
g182
sI4
g194
ssI7
(dp199
I3
g190
sI5
g196
ssI8
(dp200
I0
g176
sI4
g192
sI6
g198
ssI9
(dp201
I10
(dp202
ssI10
(dp203
I0
g177
sI9
g202
sI2
g184
sI3
g189
sI4
g193
sssg36
(dp204
sg75
g53
sg76
g174
sbsg77
g78
sbI1
tp205
sI12
(g1
(g2
g3
Ntp206
Rp207
(dp208
g7
(lp209
g9
ag10
ag11
ag12
ag13
ag14
ag15
ag16
ag17
ag18
aS'10'
p210
aS'11'
p211
aS'12'
p212
aS'13'
p213
aS'14'
p214
aS'15'
p215
aS'16'
p216
aS'17'
p217
aS'18'
p218
aS'19'
p219
asg29
g30
sg31
I01
sg32
(dp220
I0
g34
sI1
g34
sI2
g34
sI3
g35
sI4
g34
sI5
g35
sI6
g96
sI7
g35
sI8
g35
sI9
g35
sI10
g35
sI11
g96
ssg36
g1
(g37
g3
Ntp221
Rp222
(dp223
g41
(dp224
I0
(dp225
sI1
(dp226
sI2
(dp227
sI3
(dp228
sI4
(dp229
sI5
(dp230
sI6
(dp231
sI7
(dp232
sI8
(dp233
sI9
(dp234
sI10
(dp235
sI11
(dp236
ssg52
g53
sg54
g53
sg55
(dp237
I0
(dp238
I8
(dp239
sI9
(dp240
sI10
(dp241
sI5
(dp242
sI6
(dp243
ssI1
(dp244
I8
(dp245
sI9
(dp246
sI11
(dp247
sI5
(dp248
ssI2
(dp249
I9
(dp250
sI10
(dp251
ssI3
(dp252
I4
(dp253
ssI4
(dp254
I11
(dp255
sI3
g253
sI5
(dp256
sI6
(dp257
ssI5
(dp258
I0
g242
sI1
g248
sI4
g256
sI6
(dp259
ssI6
(dp260
I0
g243
sI9
(dp261
sI4
g257
sI5
g259
ssI7
(dp262
I11
(dp263
ssI8
(dp264
I0
g239
sI1
g245
ssI9
(dp265
I0
g240
sI1
g246
sI2
g250
sI6
g261
ssI10
(dp266
I0
g241
sI2
g251
sI11
(dp267
ssI11
(dp268
I1
g247
sI10
g267
sI4
g255
sI7
g263
sssg36
(dp269
sg75
g53
sg76
g237
sbsg77
g78
sbI1
tp270
sI13
(g1
(g2
g3
Ntp271
Rp272
(dp273
g7
(lp274
g9
ag10
ag11
ag12
ag13
ag14
ag15
ag16
ag17
ag18
aS'10'
p275
aS'11'
p276
aS'12'
p277
aS'13'
p278
aS'14'
p279
aS'15'
p280
aS'16'
p281
aS'17'
p282
aS'18'
p283
aS'19'
p284
asg29
g30
sg31
I01
sg32
(dp285
I0
g34
sI1
g35
sI2
g35
sI3
g96
sI4
g35
sI5
g35
sI6
g96
sI7
g35
sI8
g96
sI9
g35
sI10
g34
sI11
g35
sI12
g34
ssg36
g1
(g37
g3
Ntp286
Rp287
(dp288
g41
(dp289
I0
(dp290
sI1
(dp291
sI2
(dp292
sI3
(dp293
sI4
(dp294
sI5
(dp295
sI6
(dp296
sI7
(dp297
sI8
(dp298
sI9
(dp299
sI10
(dp300
sI11
(dp301
sI12
(dp302
ssg52
g53
sg54
g53
sg55
(dp303
I0
(dp304
I8
(dp305
sI11
(dp306
sI3
(dp307
sI5
(dp308
sI7
(dp309
ssI1
(dp310
I8
(dp311
sI10
(dp312
sI12
(dp313
ssI2
(dp314
I3
(dp315
sI12
(dp316
ssI3
(dp317
I0
g307
sI2
g315
sI11
(dp318
sI4
(dp319
sI10
(dp320
ssI4
(dp321
I3
g319
sI6
(dp322
ssI5
(dp323
I0
g308
sI12
(dp324
sI6
(dp325
ssI6
(dp326
I9
(dp327
sI10
(dp328
sI4
g322
sI5
g325
sI12
(dp329
ssI7
(dp330
I0
g309
sI10
(dp331
ssI8
(dp332
I0
g305
sI1
g311
sI11
(dp333
sI12
(dp334
sI9
(dp335
ssI9
(dp336
I8
g335
sI6
g327
ssI10
(dp337
I1
g312
sI3
g320
sI6
g328
sI7
g331
ssI11
(dp338
I0
g306
sI8
g333
sI3
g318
ssI12
(dp339
I8
g334
sI1
g313
sI2
g316
sI5
g324
sI6
g329
sssg36
(dp340
sg75
g53
sg76
g303
sbsg77
g78
sbI1
tp341
sI14
(g1
(g2
g3
Ntp342
Rp343
(dp344
g7
(lp345
g9
ag10
ag11
ag12
ag13
ag14
ag15
ag16
ag17
ag18
aS'10'
p346
aS'11'
p347
aS'12'
p348
aS'13'
p349
aS'14'
p350
aS'15'
p351
aS'16'
p352
aS'17'
p353
aS'18'
p354
aS'19'
p355
asg29
g30
sg31
I01
sg32
(dp356
I0
g35
sI1
g34
sI2
g35
sI3
g96
sI4
g35
sI5
g95
sI6
g34
sI7
g96
sI8
g34
sI9
g34
sI10
g95
sI11
g34
sI12
g35
sI13
g96
ssg36
g1
(g37
g3
Ntp357
Rp358
(dp359
g41
(dp360
I0
(dp361
sI1
(dp362
sI2
(dp363
sI3
(dp364
sI4
(dp365
sI5
(dp366
sI6
(dp367
sI7
(dp368
sI8
(dp369
sI9
(dp370
sI10
(dp371
sI11
(dp372
sI12
(dp373
sI13
(dp374
ssg52
g53
sg54
g53
sg55
(dp375
I0
(dp376
I8
(dp377
sI1
(dp378
sI11
(dp379
sI5
(dp380
sI6
(dp381
ssI1
(dp382
I0
g378
sI5
(dp383
sI13
(dp384
ssI2
(dp385
I11
(dp386
sI10
(dp387
sI3
(dp388
sI5
(dp389
ssI3
(dp390
I11
(dp391
sI9
(dp392
sI2
g388
sI10
(dp393
sI5
(dp394
ssI4
(dp395
I9
(dp396
ssI5
(dp397
I0
g380
sI1
g383
sI2
g389
sI3
g394
sI7
(dp398
sI9
(dp399
sI13
(dp400
ssI6
(dp401
I0
g381
sI12
(dp402
sI7
(dp403
ssI7
(dp404
I8
(dp405
sI10
(dp406
sI12
(dp407
sI5
g398
sI6
g403
ssI8
(dp408
I0
g377
sI10
(dp409
sI7
g405
ssI9
(dp410
I12
(dp411
sI3
g392
sI4
g396
sI5
g399
sI13
(dp412
ssI10
(dp413
I2
g387
sI3
g393
sI7
g406
sI8
g409
sI11
(dp414
sI12
(dp415
ssI11
(dp416
I0
g379
sI2
g386
sI3
g391
sI12
(dp417
sI10
g414
ssI12
(dp418
I6
g402
sI7
g407
sI9
g411
sI10
g415
sI11
g417
sI13
(dp419
ssI13
(dp420
I1
g384
sI12
g419
sI5
g400
sI9
g412
sssg36
(dp421
sg75
g53
sg76
g375
sbsg77
g78
sbI1
tp422
sI15
(g1
(g2
g3
Ntp423
Rp424
(dp425
g7
(lp426
g9
ag10
ag11
ag12
ag13
ag14
ag15
ag16
ag17
ag18
aS'10'
p427
aS'11'
p428
aS'12'
p429
aS'13'
p430
aS'14'
p431
aS'15'
p432
aS'16'
p433
aS'17'
p434
aS'18'
p435
aS'19'
p436
asg29
g30
sg31
I01
sg32
(dp437
I0
g95
sI1
g35
sI2
g96
sI3
g34
sI4
g35
sI5
g34
sI6
g95
sI7
g96
sI8
g35
sI9
g96
sI10
g34
sI11
g34
sI12
g35
sI13
g95
sI14
g35
ssg36
g1
(g37
g3
Ntp438
Rp439
(dp440
g41
(dp441
I0
(dp442
sI1
(dp443
sI2
(dp444
sI3
(dp445
sI4
(dp446
sI5
(dp447
sI6
(dp448
sI7
(dp449
sI8
(dp450
sI9
(dp451
sI10
(dp452
sI11
(dp453
sI12
(dp454
sI13
(dp455
sI14
(dp456
ssg52
g53
sg54
g53
sg55
(dp457
I0
(dp458
I1
(dp459
sI5
(dp460
sI7
(dp461
sI8
(dp462
sI9
(dp463
sI11
(dp464
sI12
(dp465
sI14
(dp466
ssI1
(dp467
I0
g459
sI9
(dp468
sI5
(dp469
sI7
(dp470
ssI2
(dp471
I8
(dp472
sI12
(dp473
sI3
(dp474
sI4
(dp475
ssI3
(dp476
I8
(dp477
sI2
g474
sI4
(dp478
sI14
(dp479
sI6
(dp480
ssI4
(dp481
I2
g475
sI3
g478
sI5
(dp482
sI6
(dp483
ssI5
(dp484
I0
g460
sI1
g469
sI4
g482
sI6
(dp485
sI7
(dp486
ssI6
(dp487
I3
g480
sI4
g483
sI5
g485
sI7
(dp488
sI10
(dp489
sI12
(dp490
ssI7
(dp491
I0
g461
sI1
g470
sI5
g486
sI6
g488
sI10
(dp492
sI13
(dp493
ssI8
(dp494
I0
g462
sI2
g472
sI3
g477
sI13
(dp495
ssI9
(dp496
I0
g463
sI1
g468
sI10
(dp497
sI12
(dp498
ssI10
(dp499
I6
g489
sI7
g492
sI9
g497
sI12
(dp500
sI13
(dp501
sI14
(dp502
ssI11
(dp503
I0
g464
sI12
(dp504
sI13
(dp505
sI14
(dp506
ssI12
(dp507
I0
g465
sI2
g473
sI6
g490
sI9
g498
sI10
g500
sI11
g504
ssI13
(dp508
I8
g495
sI10
g501
sI11
g505
sI14
(dp509
sI7
g493
ssI14
(dp510
I0
g466
sI11
g506
sI10
g502
sI3
g479
sI13
g509
sssg36
(dp511
sg75
g53
sg76
g457
sbsg77
g78
sbI1
tp512
sI16
(g1
(g2
g3
Ntp513
Rp514
(dp515
g7
(lp516
g9
ag10
ag11
ag12
ag13
ag14
ag15
ag16
ag17
ag18
aS'10'
p517
aS'11'
p518
aS'12'
p519
aS'13'
p520
aS'14'
p521
aS'15'
p522
aS'16'
p523
aS'17'
p524
aS'18'
p525
aS'19'
p526
asg29
g30
sg31
I01
sg32
(dp527
I0
g35
sI1
g34
sI2
g96
sI3
g96
sI4
g34
sI5
g96
sI6
g35
sI7
g34
sI8
g34
sI9
g34
sI10
g34
sI11
g35
sI12
g35
sI13
g35
sI14
g96
sI15
g35
ssg36
g1
(g37
g3
Ntp528
Rp529
(dp530
g41
(dp531
I0
(dp532
sI1
(dp533
sI2
(dp534
sI3
(dp535
sI4
(dp536
sI5
(dp537
sI6
(dp538
sI7
(dp539
sI8
(dp540
sI9
(dp541
sI10
(dp542
sI11
(dp543
sI12
(dp544
sI13
(dp545
sI14
(dp546
sI15
(dp547
ssg52
g53
sg54
g53
sg55
(dp548
I0
(dp549
I3
(dp550
sI5
(dp551
ssI1
(dp552
I2
(dp553
sI15
(dp554
sI5
(dp555
sI13
(dp556
ssI2
(dp557
I8
(dp558
sI1
g553
sI10
(dp559
sI11
(dp560
sI13
(dp561
ssI3
(dp562
I0
g550
sI7
(dp563
sI8
(dp564
sI10
(dp565
sI12
(dp566
sI13
(dp567
ssI4
(dp568
I11
(dp569
ssI5
(dp570
I0
g551
sI1
g555
sI12
(dp571
sI15
(dp572
ssI6
(dp573
I10
(dp574
sI14
(dp575
ssI7
(dp576
I11
(dp577
sI3
g563
sI14
(dp578
ssI8
(dp579
I11
(dp580
sI2
g558
sI3
g564
sI13
(dp581
ssI9
(dp582
I11
(dp583
sI14
(dp584
sI15
(dp585
ssI10
(dp586
I2
g559
sI3
g565
sI6
g574
sI11
(dp587
sI13
(dp588
sI14
(dp589
sI15
(dp590
ssI11
(dp591
I2
g560
sI4
g569
sI7
g577
sI8
g580
sI9
g583
sI10
g587
sI14
(dp592
ssI12
(dp593
I3
g566
sI5
g571
sI14
(dp594
ssI13
(dp595
I8
g581
sI1
g556
sI2
g561
sI3
g567
sI10
g588
ssI14
(dp596
I6
g575
sI7
g578
sI9
g584
sI10
g589
sI11
g592
sI12
g594
ssI15
(dp597
I1
g554
sI10
g590
sI5
g572
sI9
g585
sssg36
(dp598
sg75
g53
sg76
g548
sbsg77
g78
sbI2
tp599
sI17
(g1
(g2
g3
Ntp600
Rp601
(dp602
g7
(lp603
g9
ag10
ag11
ag12
ag13
ag14
ag15
ag16
ag17
ag18
aS'10'
p604
aS'11'
p605
aS'12'
p606
aS'13'
p607
aS'14'
p608
aS'15'
p609
aS'16'
p610
aS'17'
p611
aS'18'
p612
aS'19'
p613
asg29
g30
sg31
I01
sg32
(dp614
I0
g96
sI1
g34
sI2
g35
sI3
g96
sI4
g34
sI5
g35
sI6
g35
sI7
g34
sI8
g95
sI9
g96
sI10
g96
sI11
g35
sI12
g95
sI13
g34
sI14
g96
sI15
g35
sI16
g34
ssg36
g1
(g37
g3
Ntp615
Rp616
(dp617
g41
(dp618
I0
(dp619
sI1
(dp620
sI2
(dp621
sI3
(dp622
sI4
(dp623
sI5
(dp624
sI6
(dp625
sI7
(dp626
sI8
(dp627
sI9
(dp628
sI10
(dp629
sI11
(dp630
sI12
(dp631
sI13
(dp632
sI14
(dp633
sI15
(dp634
sI16
(dp635
ssg52
g53
sg54
g53
sg55
(dp636
I0
(dp637
I8
(dp638
sI11
(dp639
sI5
(dp640
sI13
(dp641
ssI1
(dp642
I2
(dp643
sI3
(dp644
sI5
(dp645
sI8
(dp646
sI9
(dp647
sI10
(dp648
sI14
(dp649
ssI2
(dp650
I16
(dp651
sI1
g643
sI4
(dp652
sI12
(dp653
sI9
(dp654
ssI3
(dp655
I1
g644
sI15
(dp656
sI4
(dp657
sI5
(dp658
sI7
(dp659
ssI4
(dp660
I9
(dp661
sI2
g652
sI3
g657
sI10
(dp662
ssI5
(dp663
I0
g640
sI1
g645
sI3
g658
sI7
(dp664
sI10
(dp665
sI12
(dp666
sI16
(dp667
ssI6
(dp668
I8
(dp669
sI10
(dp670
sI12
(dp671
sI13
(dp672
sI14
(dp673
sI16
(dp674
ssI7
(dp675
I11
(dp676
sI3
g659
sI5
g664
ssI8
(dp677
I0
g638
sI1
g646
sI11
(dp678
sI6
g669
sI9
(dp679
ssI9
(dp680
I1
g647
sI2
g654
sI4
g661
sI8
g679
sI11
(dp681
sI12
(dp682
sI13
(dp683
ssI10
(dp684
I1
g648
sI4
g662
sI5
g665
sI6
g670
sI11
(dp685
sI12
(dp686
sI13
(dp687
sI16
(dp688
ssI11
(dp689
I0
g639
sI7
g676
sI8
g678
sI9
g681
sI10
g685
sI13
(dp690
sI14
(dp691
sI16
(dp692
ssI12
(dp693
I2
g653
sI5
g666
sI6
g671
sI9
g682
sI10
g686
sI13
(dp694
ssI13
(dp695
I0
g641
sI6
g672
sI9
g683
sI10
g687
sI11
g690
sI12
g694
sI14
(dp696
sI15
(dp697
ssI14
(dp698
I1
g649
sI11
g691
sI13
g696
sI6
g673
ssI15
(dp699
I3
g656
sI13
g697
ssI16
(dp700
I11
g692
sI2
g651
sI10
g688
sI5
g667
sI6
g674
sssg36
(dp701
sg75
g53
sg76
g636
sbsg77
g78
sbI1
tp702
sI18
(g1
(g2
g3
Ntp703
Rp704
(dp705
g7
(lp706
g9
ag10
ag11
ag12
ag13
ag14
ag15
ag16
ag17
ag18
aS'10'
p707
aS'11'
p708
aS'12'
p709
aS'13'
p710
aS'14'
p711
aS'15'
p712
aS'16'
p713
aS'17'
p714
aS'18'
p715
aS'19'
p716
asg29
g30
sg31
I01
sg32
(dp717
I0
g34
sI1
g34
sI2
g95
sI3
g95
sI4
g95
sI5
g96
sI6
g34
sI7
g96
sI8
g35
sI9
g95
sI10
g96
sI11
g96
sI12
g34
sI13
g35
sI14
g35
sI15
g35
sI16
g95
sI17
g35
ssg36
g1
(g37
g3
Ntp718
Rp719
(dp720
g41
(dp721
I0
(dp722
sI1
(dp723
sI2
(dp724
sI3
(dp725
sI4
(dp726
sI5
(dp727
sI6
(dp728
sI7
(dp729
sI8
(dp730
sI9
(dp731
sI10
(dp732
sI11
(dp733
sI12
(dp734
sI13
(dp735
sI14
(dp736
sI15
(dp737
sI16
(dp738
sI17
(dp739
ssg52
g53
sg54
g53
sg55
(dp740
I0
(dp741
I2
(dp742
sI4
(dp743
sI5
(dp744
sI7
(dp745
sI11
(dp746
sI16
(dp747
sI17
(dp748
ssI1
(dp749
I3
(dp750
sI5
(dp751
sI7
(dp752
sI9
(dp753
sI13
(dp754
sI17
(dp755
ssI2
(dp756
I0
g742
sI12
(dp757
sI13
(dp758
sI7
(dp759
ssI3
(dp760
I1
g750
sI6
(dp761
sI7
(dp762
sI10
(dp763
sI11
(dp764
sI13
(dp765
sI14
(dp766
ssI4
(dp767
I0
g743
sI15
(dp768
sI7
(dp769
ssI5
(dp770
I0
g744
sI1
g751
sI17
(dp771
sI14
(dp772
sI15
(dp773
ssI6
(dp774
I3
g761
sI7
(dp775
sI10
(dp776
sI13
(dp777
sI15
(dp778
sI16
(dp779
ssI7
(dp780
I0
g745
sI1
g752
sI2
g759
sI3
g762
sI4
g769
sI6
g775
sI9
(dp781
sI13
(dp782
sI16
(dp783
ssI8
(dp784
I11
(dp785
ssI9
(dp786
I1
g753
sI11
(dp787
sI14
(dp788
sI7
g781
ssI10
(dp789
I17
(dp790
sI3
g763
sI12
(dp791
sI6
g776
ssI11
(dp792
I0
g746
sI3
g764
sI8
g785
sI9
g787
sI14
(dp793
sI16
(dp794
ssI12
(dp795
I17
(dp796
sI2
g757
sI10
g791
sI14
(dp797
sI15
(dp798
ssI13
(dp799
I1
g754
sI2
g758
sI3
g765
sI6
g777
sI7
g782
sI16
(dp800
ssI14
(dp801
I11
g793
sI9
g788
sI3
g766
sI12
g797
sI5
g772
ssI15
(dp802
I12
g798
sI4
g768
sI5
g773
sI6
g778
ssI16
(dp803
I0
g747
sI6
g779
sI7
g783
sI11
g794
sI13
g800
sI17
(dp804
ssI17
(dp805
I0
g748
sI1
g755
sI5
g771
sI10
g790
sI12
g796
sI16
g804
sssg36
(dp806
sg75
g53
sg76
g740
sbsg77
g78
sbI1
tp807
sI19
(g1
(g2
g3
Ntp808
Rp809
(dp810
g7
(lp811
g9
ag10
ag11
ag12
ag13
ag14
ag15
ag16
ag17
ag18
aS'10'
p812
aS'11'
p813
aS'12'
p814
aS'13'
p815
aS'14'
p816
aS'15'
p817
aS'16'
p818
aS'17'
p819
aS'18'
p820
aS'19'
p821
asg29
g30
sg31
I01
sg32
(dp822
I0
g96
sI1
g35
sI2
g35
sI3
g96
sI4
g95
sI5
g95
sI6
g35
sI7
g96
sI8
g34
sI9
g96
sI10
g35
sI11
g34
sI12
g35
sI13
g34
sI14
g35
sI15
g34
sI16
g34
sI17
g95
sI18
g95
ssg36
g1
(g37
g3
Ntp823
Rp824
(dp825
g41
(dp826
I0
(dp827
sI1
(dp828
sI2
(dp829
sI3
(dp830
sI4
(dp831
sI5
(dp832
sI6
(dp833
sI7
(dp834
sI8
(dp835
sI9
(dp836
sI10
(dp837
sI11
(dp838
sI12
(dp839
sI13
(dp840
sI14
(dp841
sI15
(dp842
sI16
(dp843
sI17
(dp844
sI18
(dp845
ssg52
g53
sg54
g53
sg55
(dp846
I0
(dp847
I2
(dp848
sI11
(dp849
sI4
(dp850
sI18
(dp851
sI15
(dp852
ssI1
(dp853
I18
(dp854
sI15
(dp855
sI4
(dp856
sI7
(dp857
ssI2
(dp858
I0
g848
sI16
(dp859
sI11
(dp860
sI4
(dp861
sI17
(dp862
ssI3
(dp863
I4
(dp864
sI5
(dp865
sI6
(dp866
sI10
(dp867
sI11
(dp868
sI12
(dp869
sI18
(dp870
ssI4
(dp871
I0
g850
sI1
g856
sI2
g861
sI3
g864
sI6
(dp872
sI10
(dp873
sI11
(dp874
sI14
(dp875
ssI5
(dp876
I10
(dp877
sI3
g865
sI13
(dp878
sI6
(dp879
sI7
(dp880
ssI6
(dp881
I17
(dp882
sI3
g866
sI4
g872
sI5
g879
sI7
(dp883
ssI7
(dp884
I1
g857
sI5
g880
sI6
g883
sI8
(dp885
sI10
(dp886
sI11
(dp887
sI13
(dp888
ssI8
(dp889
I10
(dp890
sI12
(dp891
sI14
(dp892
sI7
g885
ssI9
(dp893
I17
(dp894
sI10
(dp895
sI11
(dp896
sI18
(dp897
ssI10
(dp898
I3
g867
sI4
g873
sI5
g877
sI7
g886
sI8
g890
sI9
g895
sI11
(dp899
sI13
(dp900
sI18
(dp901
ssI11
(dp902
I0
g849
sI2
g860
sI3
g868
sI4
g874
sI7
g887
sI9
g896
sI10
g899
sI18
(dp903
ssI12
(dp904
I8
g891
sI17
(dp905
sI3
g869
ssI13
(dp906
I10
g900
sI5
g878
sI7
g888
ssI14
(dp907
I8
g892
sI4
g875
ssI15
(dp908
I0
g852
sI1
g855
sI18
(dp909
sI17
(dp910
ssI16
(dp911
I2
g859
ssI17
(dp912
I9
g894
sI2
g862
sI12
g905
sI6
g882
sI15
g910
ssI18
(dp913
I0
g851
sI1
g854
sI3
g870
sI9
g897
sI10
g901
sI11
g903
sI15
g909
sssg36
(dp914
sg75
g53
sg76
g846
sbsg77
g78
sbI1
tp915
sI20
(g1
(g2
g3
Ntp916
Rp917
(dp918
g7
(lp919
g9
ag10
ag11
ag12
ag13
ag14
ag15
ag16
ag17
ag18
aS'10'
p920
aS'11'
p921
aS'12'
p922
aS'13'
p923
aS'14'
p924
aS'15'
p925
aS'16'
p926
aS'17'
p927
aS'18'
p928
aS'19'
p929
asg29
g30
sg31
I01
sg32
(dp930
I0
g35
sI1
g34
sI2
g96
sI3
g35
sI4
g96
sI5
g96
sI6
g95
sI7
g35
sI8
g95
sI9
g34
sI10
g34
sI11
g95
sI12
g95
sI13
S'orange'
p931
sI14
g96
sI15
g34
sI16
g34
sI17
g96
sI18
g35
sI19
g931
ssg36
g1
(g37
g3
Ntp932
Rp933
(dp934
g41
(dp935
I0
(dp936
sI1
(dp937
sI2
(dp938
sI3
(dp939
sI4
(dp940
sI5
(dp941
sI6
(dp942
sI7
(dp943
sI8
(dp944
sI9
(dp945
sI10
(dp946
sI11
(dp947
sI12
(dp948
sI13
(dp949
sI14
(dp950
sI15
(dp951
sI16
(dp952
sI17
(dp953
sI18
(dp954
sI19
(dp955
ssg52
g53
sg54
g53
sg55
(dp956
I0
(dp957
I2
(dp958
sI4
(dp959
sI5
(dp960
sI6
(dp961
sI8
(dp962
sI9
(dp963
sI10
(dp964
sI12
(dp965
sI14
(dp966
sI15
(dp967
sI17
(dp968
ssI1
(dp969
I3
(dp970
sI5
(dp971
sI7
(dp972
sI8
(dp973
sI12
(dp974
sI17
(dp975
ssI2
(dp976
I0
g958
sI6
(dp977
sI10
(dp978
sI11
(dp979
sI12
(dp980
sI15
(dp981
sI19
(dp982
ssI3
(dp983
I1
g970
sI4
(dp984
sI9
(dp985
sI10
(dp986
sI12
(dp987
sI13
(dp988
sI17
(dp989
ssI4
(dp990
I0
g959
sI3
g984
sI7
(dp991
sI8
(dp992
sI9
(dp993
sI10
(dp994
sI11
(dp995
ssI5
(dp996
I0
g960
sI1
g971
sI15
(dp997
sI7
(dp998
ssI6
(dp999
I0
g961
sI2
g977
sI7
(dp1000
sI9
(dp1001
sI14
(dp1002
sI16
(dp1003
ssI7
(dp1004
I1
g972
sI4
g991
sI5
g998
sI6
g1000
sI9
(dp1005
sI12
(dp1006
sI16
(dp1007
sI17
(dp1008
sI19
(dp1009
ssI8
(dp1010
I0
g962
sI1
g973
sI19
(dp1011
sI4
g992
sI14
(dp1012
ssI9
(dp1013
I0
g963
sI3
g985
sI4
g993
sI6
g1001
sI7
g1005
sI13
(dp1014
sI14
(dp1015
ssI10
(dp1016
I0
g964
sI2
g978
sI3
g986
sI4
g994
sI11
(dp1017
sI14
(dp1018
ssI11
(dp1019
I2
g979
sI4
g995
sI10
g1017
sI13
(dp1020
sI16
(dp1021
sI17
(dp1022
sI18
(dp1023
sI19
(dp1024
ssI12
(dp1025
I0
g965
sI1
g974
sI2
g980
sI3
g987
sI7
g1006
sI16
(dp1026
ssI13
(dp1027
I3
g988
sI9
g1014
sI11
g1020
sI15
(dp1028
sI16
(dp1029
sI17
(dp1030
sI18
(dp1031
ssI14
(dp1032
I0
g966
sI6
g1002
sI8
g1012
sI9
g1015
sI10
g1018
sI18
(dp1033
sI19
(dp1034
ssI15
(dp1035
I0
g967
sI2
g981
sI5
g997
sI13
g1028
sI18
(dp1036
sI19
(dp1037
ssI16
(dp1038
I6
g1003
sI7
g1007
sI11
g1021
sI12
g1026
sI13
g1029
sI17
(dp1039
sI19
(dp1040
ssI17
(dp1041
I0
g968
sI1
g975
sI3
g989
sI7
g1008
sI11
g1022
sI13
g1030
sI16
g1039
sI18
(dp1042
ssI18
(dp1043
I17
g1042
sI11
g1023
sI13
g1031
sI14
g1033
sI15
g1036
ssI19
(dp1044
I2
g982
sI7
g1009
sI8
g1011
sI11
g1024
sI14
g1034
sI15
g1037
sI16
g1040
sssg36
(dp1045
sg75
g53
sg76
g956
sbsg77
g78
sbI1
tp1046
s.