(dp0
I7
(ccopy_reg
_reconstructor
p1
(c__main__
ColorGraph
p2
c__builtin__
object
p3
Ntp4
Rp5
(dp6
S'ALL_COLOURS'
p7
(lp8
S'0'
p9
aS'1'
p10
aS'2'
p11
aS'3'
p12
aS'4'
p13
aS'5'
p14
aS'6'
p15
aS'7'
p16
aS'8'
p17
aS'9'
p18
aS'10'
p19
aS'11'
p20
aS'12'
p21
aS'13'
p22
aS'14'
p23
aS'15'
p24
aS'16'
p25
aS'17'
p26
aS'18'
p27
aS'19'
p28
asS'plotname'
p29
S'graphcolouring'
p30
sS'revert'
p31
I01
sS'colours'
p32
(dp33
I0
S'blue'
p34
sI1
S'yellow'
p35
sI2
S'red'
p36
sI3
g36
sI4
g34
sI5
g35
sI6
g36
ssS'graph'
p37
g1
(cnetworkx.classes.graph
Graph
p38
g3
Ntp39
Rp40
(dp41
S'node'
p42
(dp43
I0
(dp44
sI1
(dp45
sI2
(dp46
sI3
(dp47
sI4
(dp48
sI5
(dp49
sI6
(dp50
ssS'node_dict_factory'
p51
c__builtin__
dict
p52
sS'edge_attr_dict_factory'
p53
g52
sS'edge'
p54
(dp55
I0
(dp56
I1
(dp57
sI5
(dp58
sI6
(dp59
ssI1
(dp60
I0
g57
sI3
(dp61
sI4
(dp62
sI6
(dp63
ssI2
(dp64
I4
(dp65
sI5
(dp66
ssI3
(dp67
I1
g61
sI4
(dp68
sI5
(dp69
ssI4
(dp70
I1
g62
sI2
g65
sI3
g68
sI6
(dp71
ssI5
(dp72
I0
g58
sI2
g66
sI3
g69
ssI6
(dp73
I0
g59
sI1
g63
sI4
g71
sssg37
(dp74
sS'adjlist_dict_factory'
p75
g52
sS'adj'
p76
g55
sbsS'DIRECTORY'
p77
S'/home/mickael/Documents/projects/examination-scheduling/booth/plots/'
p78
sS'history'
p79
(dp80
I0
(dp81
I0
S'white'
p82
sI1
g82
sI2
g82
sI3
g82
sI4
g82
sI5
g82
sI6
g82
ssI1
(dp83
I0
g34
sI1
g82
sI2
g82
sI3
g82
sI4
g82
sI5
g82
sI6
g82
ssI2
(dp84
I0
g34
sI1
g82
sI2
g82
sI3
g82
sI4
g34
sI5
g82
sI6
g82
ssI3
(dp85
I0
g34
sI1
g82
sI2
g82
sI3
g36
sI4
g34
sI5
g82
sI6
g82
ssI4
(dp86
I0
g34
sI1
g82
sI2
g82
sI3
g36
sI4
g34
sI5
g82
sI6
g36
ssI5
(dp87
I0
g34
sI1
g35
sI2
g82
sI3
g36
sI4
g34
sI5
g82
sI6
g36
ssI6
(dp88
I0
g34
sI1
g35
sI2
g82
sI3
g36
sI4
g34
sI5
g35
sI6
g36
ssI7
(dp89
I0
g34
sI1
g35
sI2
g36
sI3
g36
sI4
g34
sI5
g35
sI6
g36
sssbI1
tp90
sI8
(g1
(g2
g3
Ntp91
Rp92
(dp93
g7
(lp94
g9
ag10
ag11
ag12
ag13
ag14
ag15
ag16
ag17
ag18
aS'10'
p95
aS'11'
p96
aS'12'
p97
aS'13'
p98
aS'14'
p99
aS'15'
p100
aS'16'
p101
aS'17'
p102
aS'18'
p103
aS'19'
p104
asg29
g30
sg31
I01
sg32
(dp105
I0
g34
sI1
g34
sI2
g36
sI3
g34
sI4
g34
sI5
g35
sI6
g36
sI7
g36
ssg37
g1
(g38
g3
Ntp106
Rp107
(dp108
g42
(dp109
I0
(dp110
sI1
(dp111
sI2
(dp112
sI3
(dp113
sI4
(dp114
sI5
(dp115
sI6
(dp116
sI7
(dp117
ssg51
g52
sg53
g52
sg54
(dp118
I0
(dp119
I6
(dp120
ssI1
(dp121
I2
(dp122
sI5
(dp123
sI6
(dp124
ssI2
(dp125
I1
g122
sI3
(dp126
sI5
(dp127
ssI3
(dp128
I2
g126
sI5
(dp129
sI7
(dp130
ssI4
(dp131
sI5
(dp132
I1
g123
sI2
g127
sI3
g129
sI6
(dp133
ssI6
(dp134
I0
g120
sI1
g124
sI5
g133
ssI7
(dp135
I3
g130
sssg37
(dp136
sg75
g52
sg76
g118
sbsg77
S'/home/mickael/Documents/projects/examination-scheduling/booth/plots/'
p137
sg79
(dp138
I0
(dp139
I0
g82
sI1
g82
sI2
g82
sI3
g82
sI4
g82
sI5
g82
sI6
g82
sI7
g82
ssI1
(dp140
I0
g82
sI1
g82
sI2
g82
sI3
g34
sI4
g82
sI5
g82
sI6
g82
sI7
g82
ssI2
(dp141
I0
g82
sI1
g82
sI2
g36
sI3
g34
sI4
g82
sI5
g82
sI6
g82
sI7
g82
ssI3
(dp142
I0
g82
sI1
g34
sI2
g36
sI3
g34
sI4
g82
sI5
g82
sI6
g82
sI7
g82
ssI4
(dp143
I0
g82
sI1
g34
sI2
g36
sI3
g34
sI4
g34
sI5
g82
sI6
g82
sI7
g82
ssI5
(dp144
I0
g82
sI1
g34
sI2
g36
sI3
g34
sI4
g34
sI5
g35
sI6
g82
sI7
g82
ssI6
(dp145
I0
g82
sI1
g34
sI2
g36
sI3
g34
sI4
g34
sI5
g35
sI6
g82
sI7
g36
ssI7
(dp146
I0
g82
sI1
g34
sI2
g36
sI3
g34
sI4
g34
sI5
g35
sI6
g36
sI7
g36
ssI8
(dp147
I0
g34
sI1
g34
sI2
g36
sI3
g34
sI4
g34
sI5
g35
sI6
g36
sI7
g36
sssbI1
tp148
sI9
(g1
(g2
g3
Ntp149
Rp150
(dp151
g7
(lp152
g9
ag10
ag11
ag12
ag13
ag14
ag15
ag16
ag17
ag18
aS'10'
p153
aS'11'
p154
aS'12'
p155
aS'13'
p156
aS'14'
p157
aS'15'
p158
aS'16'
p159
aS'17'
p160
aS'18'
p161
aS'19'
p162
asg29
g30
sg31
I01
sg32
(dp163
I0
g34
sI1
g36
sI2
g35
sI3
g35
sI4
g34
sI5
g36
sI6
g36
sI7
g35
sI8
g34
ssg37
g1
(g38
g3
Ntp164
Rp165
(dp166
g42
(dp167
I0
(dp168
sI1
(dp169
sI2
(dp170
sI3
(dp171
sI4
(dp172
sI5
(dp173
sI6
(dp174
sI7
(dp175
sI8
(dp176
ssg51
g52
sg53
g52
sg54
(dp177
I0
(dp178
I3
(dp179
sI5
(dp180
sI6
(dp181
sI7
(dp182
ssI1
(dp183
I8
(dp184
sI4
(dp185
sI7
(dp186
ssI2
(dp187
I4
(dp188
sI5
(dp189
ssI3
(dp190
I0
g179
sI8
(dp191
sI4
(dp192
sI5
(dp193
ssI4
(dp194
I1
g185
sI2
g188
sI3
g192
sI7
(dp195
ssI5
(dp196
I0
g180
sI8
(dp197
sI2
g189
sI3
g193
sI7
(dp198
ssI6
(dp199
I0
g181
sI7
(dp200
ssI7
(dp201
I0
g182
sI1
g186
sI4
g195
sI5
g198
sI6
g200
ssI8
(dp202
I1
g184
sI3
g191
sI5
g197
sssg37
(dp203
sg75
g52
sg76
g177
sbsg77
S'/home/mickael/Documents/projects/examination-scheduling/booth/plots/'
p204
sg79
(dp205
I0
(dp206
I0
g82
sI1
g82
sI2
g82
sI3
g82
sI4
g82
sI5
g82
sI6
g82
sI7
g82
sI8
g82
ssI1
(dp207
I0
g34
sI1
g82
sI2
g82
sI3
g82
sI4
g82
sI5
g82
sI6
g82
sI7
g82
sI8
g82
ssI2
(dp208
I0
g34
sI1
g82
sI2
g82
sI3
g82
sI4
g34
sI5
g82
sI6
g82
sI7
g82
sI8
g82
ssI3
(dp209
I0
g34
sI1
g82
sI2
g82
sI3
g82
sI4
g34
sI5
g82
sI6
g82
sI7
g82
sI8
g34
ssI4
(dp210
I0
g34
sI1
g82
sI2
g82
sI3
g82
sI4
g34
sI5
g36
sI6
g82
sI7
g82
sI8
g34
ssI5
(dp211
I0
g34
sI1
g82
sI2
g82
sI3
g35
sI4
g34
sI5
g36
sI6
g82
sI7
g82
sI8
g34
ssI6
(dp212
I0
g34
sI1
g82
sI2
g82
sI3
g35
sI4
g34
sI5
g36
sI6
g36
sI7
g82
sI8
g34
ssI7
(dp213
I0
g34
sI1
g82
sI2
g35
sI3
g35
sI4
g34
sI5
g36
sI6
g36
sI7
g82
sI8
g34
ssI8
(dp214
I0
g34
sI1
g36
sI2
g35
sI3
g35
sI4
g34
sI5
g36
sI6
g36
sI7
g82
sI8
g34
ssI9
(dp215
I0
g34
sI1
g36
sI2
g35
sI3
g35
sI4
g34
sI5
g36
sI6
g36
sI7
g35
sI8
g34
sssbI1
tp216
sI10
(g1
(g2
g3
Ntp217
Rp218
(dp219
g7
(lp220
g9
ag10
ag11
ag12
ag13
ag14
ag15
ag16
ag17
ag18
aS'10'
p221
aS'11'
p222
aS'12'
p223
aS'13'
p224
aS'14'
p225
aS'15'
p226
aS'16'
p227
aS'17'
p228
aS'18'
p229
aS'19'
p230
asg29
g30
sg31
I01
sg32
(dp231
I0
g34
sI1
g35
sI2
g36
sI3
g34
sI4
g34
sI5
g35
sI6
g36
sI7
g36
sI8
g36
sI9
g36
ssg37
g1
(g38
g3
Ntp232
Rp233
(dp234
g42
(dp235
I0
(dp236
sI1
(dp237
sI2
(dp238
sI3
(dp239
sI4
(dp240
sI5
(dp241
sI6
(dp242
sI7
(dp243
sI8
(dp244
sI9
(dp245
ssg51
g52
sg53
g52
sg54
(dp246
I0
(dp247
I1
(dp248
sI2
(dp249
sI5
(dp250
sI7
(dp251
ssI1
(dp252
I0
g248
sI9
(dp253
sI3
(dp254
sI4
(dp255
ssI2
(dp256
I0
g249
sI3
(dp257
sI4
(dp258
ssI3
(dp259
I8
(dp260
sI1
g254
sI2
g257
sI6
(dp261
ssI4
(dp262
I1
g255
sI2
g258
sI9
(dp263
sI7
(dp264
ssI5
(dp265
I0
g250
sI9
(dp266
sI7
(dp267
ssI6
(dp268
I3
g261
ssI7
(dp269
I0
g251
sI4
g264
sI5
g267
ssI8
(dp270
I3
g260
ssI9
(dp271
I1
g253
sI4
g263
sI5
g266
sssg37
(dp272
sg75
g52
sg76
g246
sbsg77
S'/home/mickael/Documents/projects/examination-scheduling/booth/plots/'
p273
sg79
(dp274
I0
(dp275
I0
g82
sI1
g82
sI2
g82
sI3
g82
sI4
g82
sI5
g82
sI6
g82
sI7
g82
sI8
g82
sI9
g82
ssI1
(dp276
I0
g82
sI1
g82
sI2
g82
sI3
g82
sI4
g34
sI5
g82
sI6
g82
sI7
g82
sI8
g82
sI9
g82
ssI2
(dp277
I0
g82
sI1
g82
sI2
g82
sI3
g82
sI4
g34
sI5
g82
sI6
g82
sI7
g36
sI8
g82
sI9
g82
ssI3
(dp278
I0
g34
sI1
g82
sI2
g82
sI3
g82
sI4
g34
sI5
g82
sI6
g82
sI7
g36
sI8
g82
sI9
g82
ssI4
(dp279
I0
g34
sI1
g82
sI2
g36
sI3
g82
sI4
g34
sI5
g82
sI6
g82
sI7
g36
sI8
g82
sI9
g82
ssI5
(dp280
I0
g34
sI1
g82
sI2
g36
sI3
g82
sI4
g34
sI5
g35
sI6
g82
sI7
g36
sI8
g82
sI9
g82
ssI6
(dp281
I0
g34
sI1
g82
sI2
g36
sI3
g82
sI4
g34
sI5
g35
sI6
g82
sI7
g36
sI8
g82
sI9
g36
ssI7
(dp282
I0
g34
sI1
g82
sI2
g36
sI3
g34
sI4
g34
sI5
g35
sI6
g82
sI7
g36
sI8
g82
sI9
g36
ssI8
(dp283
I0
g34
sI1
g82
sI2
g36
sI3
g34
sI4
g34
sI5
g35
sI6
g36
sI7
g36
sI8
g82
sI9
g36
ssI9
(dp284
I0
g34
sI1
g82
sI2
g36
sI3
g34
sI4
g34
sI5
g35
sI6
g36
sI7
g36
sI8
g36
sI9
g36
ssI10
(dp285
I0
g34
sI1
g35
sI2
g36
sI3
g34
sI4
g34
sI5
g35
sI6
g36
sI7
g36
sI8
g36
sI9
g36
sssbI1
tp286
sI11
(g1
(g2
g3
Ntp287
Rp288
(dp289
g7
(lp290
g9
ag10
ag11
ag12
ag13
ag14
ag15
ag16
ag17
ag18
aS'10'
p291
aS'11'
p292
aS'12'
p293
aS'13'
p294
aS'14'
p295
aS'15'
p296
aS'16'
p297
aS'17'
p298
aS'18'
p299
aS'19'
p300
asg29
g30
sg31
I01
sg32
(dp301
I0
g36
sI1
g36
sI2
g35
sI3
g34
sI4
g35
sI5
g34
sI6
g34
sI7
g36
sI8
g36
sI9
g34
sI10
g34
ssg37
g1
(g38
g3
Ntp302
Rp303
(dp304
g42
(dp305
I0
(dp306
sI1
(dp307
sI2
(dp308
sI3
(dp309
sI4
(dp310
sI5
(dp311
sI6
(dp312
sI7
(dp313
sI8
(dp314
sI9
(dp315
sI10
(dp316
ssg51
g52
sg53
g52
sg54
(dp317
I0
(dp318
I2
(dp319
sI3
(dp320
sI4
(dp321
sI6
(dp322
ssI1
(dp323
I9
(dp324
sI10
(dp325
sI4
(dp326
ssI2
(dp327
I0
g319
sI8
(dp328
sI3
(dp329
sI5
(dp330
sI9
(dp331
ssI3
(dp332
I0
g320
sI2
g329
sI4
(dp333
sI7
(dp334
ssI4
(dp335
I0
g321
sI1
g326
sI10
(dp336
sI3
g333
sI8
(dp337
ssI5
(dp338
I2
g330
ssI6
(dp339
I0
g322
sI8
(dp340
sI7
(dp341
ssI7
(dp342
I10
(dp343
sI3
g334
sI6
g341
ssI8
(dp344
I2
g328
sI4
g337
sI6
g340
ssI9
(dp345
I1
g324
sI2
g331
ssI10
(dp346
I1
g325
sI4
g336
sI7
g343
sssg37
(dp347
sg75
g52
sg76
g317
sbsg77
S'/home/mickael/Documents/projects/examination-scheduling/booth/plots/'
p348
sg79
(dp349
I0
(dp350
I0
g82
sI1
g82
sI2
g82
sI3
g82
sI4
g82
sI5
g82
sI6
g82
sI7
g82
sI8
g82
sI9
g82
sI10
g82
ssI1
(dp351
I0
g82
sI1
g82
sI2
g82
sI3
g82
sI4
g82
sI5
g82
sI6
g82
sI7
g82
sI8
g82
sI9
g34
sI10
g82
ssI2
(dp352
I0
g82
sI1
g82
sI2
g82
sI3
g82
sI4
g82
sI5
g82
sI6
g34
sI7
g82
sI8
g82
sI9
g34
sI10
g82
ssI3
(dp353
I0
g82
sI1
g82
sI2
g82
sI3
g82
sI4
g82
sI5
g82
sI6
g34
sI7
g36
sI8
g82
sI9
g34
sI10
g82
ssI4
(dp354
I0
g82
sI1
g82
sI2
g82
sI3
g82
sI4
g82
sI5
g34
sI6
g34
sI7
g36
sI8
g82
sI9
g34
sI10
g82
ssI5
(dp355
I0
g82
sI1
g82
sI2
g82
sI3
g82
sI4
g82
sI5
g34
sI6
g34
sI7
g36
sI8
g36
sI9
g34
sI10
g82
ssI6
(dp356
I0
g82
sI1
g82
sI2
g82
sI3
g34
sI4
g82
sI5
g34
sI6
g34
sI7
g36
sI8
g36
sI9
g34
sI10
g82
ssI7
(dp357
I0
g82
sI1
g82
sI2
g82
sI3
g34
sI4
g35
sI5
g34
sI6
g34
sI7
g36
sI8
g36
sI9
g34
sI10
g82
ssI8
(dp358
I0
g82
sI1
g36
sI2
g82
sI3
g34
sI4
g35
sI5
g34
sI6
g34
sI7
g36
sI8
g36
sI9
g34
sI10
g82
ssI9
(dp359
I0
g82
sI1
g36
sI2
g35
sI3
g34
sI4
g35
sI5
g34
sI6
g34
sI7
g36
sI8
g36
sI9
g34
sI10
g82
ssI10
(dp360
I0
g36
sI1
g36
sI2
g35
sI3
g34
sI4
g35
sI5
g34
sI6
g34
sI7
g36
sI8
g36
sI9
g34
sI10
g82
ssI11
(dp361
I0
g36
sI1
g36
sI2
g35
sI3
g34
sI4
g35
sI5
g34
sI6
g34
sI7
g36
sI8
g36
sI9
g34
sI10
g34
sssbI1
tp362
sI12
(g1
(g2
g3
Ntp363
Rp364
(dp365
g7
(lp366
g9
ag10
ag11
ag12
ag13
ag14
ag15
ag16
ag17
ag18
aS'10'
p367
aS'11'
p368
aS'12'
p369
aS'13'
p370
aS'14'
p371
aS'15'
p372
aS'16'
p373
aS'17'
p374
aS'18'
p375
aS'19'
p376
asg29
g30
sg31
I01
sg32
(dp377
I0
g34
sI1
g35
sI2
g35
sI3
g34
sI4
g35
sI5
g36
sI6
g35
sI7
g34
sI8
g35
sI9
g34
sI10
g36
sI11
g34
ssg37
g1
(g38
g3
Ntp378
Rp379
(dp380
g42
(dp381
I0
(dp382
sI1
(dp383
sI2
(dp384
sI3
(dp385
sI4
(dp386
sI5
(dp387
sI6
(dp388
sI7
(dp389
sI8
(dp390
sI9
(dp391
sI10
(dp392
sI11
(dp393
ssg51
g52
sg53
g52
sg54
(dp394
I0
(dp395
I1
(dp396
ssI1
(dp397
I0
g396
sI9
(dp398
sI5
(dp399
ssI2
(dp400
I10
(dp401
sI3
(dp402
ssI3
(dp403
I2
g402
sI10
(dp404
ssI4
(dp405
I9
(dp406
sI10
(dp407
sI5
(dp408
ssI5
(dp409
I1
g399
sI4
g408
sI6
(dp410
sI7
(dp411
ssI6
(dp412
I10
(dp413
sI11
(dp414
sI5
g410
sI7
(dp415
ssI7
(dp416
I8
(dp417
sI5
g411
sI6
g415
ssI8
(dp418
I9
(dp419
sI10
(dp420
sI7
g417
ssI9
(dp421
I8
g419
sI1
g398
sI10
(dp422
sI4
g406
ssI10
(dp423
I2
g401
sI3
g404
sI4
g407
sI6
g413
sI8
g420
sI9
g422
sI11
(dp424
ssI11
(dp425
I10
g424
sI6
g414
sssg37
(dp426
sg75
g52
sg76
g394
sbsg77
S'/home/mickael/Documents/projects/examination-scheduling/booth/plots/'
p427
sg79
(dp428
I0
(dp429
I0
g82
sI1
g82
sI2
g82
sI3
g82
sI4
g82
sI5
g82
sI6
g82
sI7
g82
sI8
g82
sI9
g82
sI10
g82
sI11
g82
ssI1
(dp430
I0
g82
sI1
g82
sI2
g82
sI3
g82
sI4
g82
sI5
g82
sI6
g82
sI7
g82
sI8
g82
sI9
g82
sI10
g82
sI11
g34
ssI2
(dp431
I0
g34
sI1
g82
sI2
g82
sI3
g82
sI4
g82
sI5
g82
sI6
g82
sI7
g82
sI8
g82
sI9
g82
sI10
g82
sI11
g34
ssI3
(dp432
I0
g34
sI1
g82
sI2
g82
sI3
g82
sI4
g82
sI5
g82
sI6
g82
sI7
g34
sI8
g82
sI9
g82
sI10
g82
sI11
g34
ssI4
(dp433
I0
g34
sI1
g82
sI2
g82
sI3
g82
sI4
g82
sI5
g82
sI6
g82
sI7
g34
sI8
g82
sI9
g82
sI10
g36
sI11
g34
ssI5
(dp434
I0
g34
sI1
g82
sI2
g82
sI3
g82
sI4
g82
sI5
g82
sI6
g82
sI7
g34
sI8
g35
sI9
g82
sI10
g36
sI11
g34
ssI6
(dp435
I0
g34
sI1
g82
sI2
g82
sI3
g82
sI4
g82
sI5
g82
sI6
g82
sI7
g34
sI8
g35
sI9
g34
sI10
g36
sI11
g34
ssI7
(dp436
I0
g34
sI1
g82
sI2
g82
sI3
g34
sI4
g82
sI5
g82
sI6
g82
sI7
g34
sI8
g35
sI9
g34
sI10
g36
sI11
g34
ssI8
(dp437
I0
g34
sI1
g82
sI2
g35
sI3
g34
sI4
g82
sI5
g82
sI6
g82
sI7
g34
sI8
g35
sI9
g34
sI10
g36
sI11
g34
ssI9
(dp438
I0
g34
sI1
g82
sI2
g35
sI3
g34
sI4
g82
sI5
g36
sI6
g82
sI7
g34
sI8
g35
sI9
g34
sI10
g36
sI11
g34
ssI10
(dp439
I0
g34
sI1
g82
sI2
g35
sI3
g34
sI4
g82
sI5
g36
sI6
g35
sI7
g34
sI8
g35
sI9
g34
sI10
g36
sI11
g34
ssI11
(dp440
I0
g34
sI1
g35
sI2
g35
sI3
g34
sI4
g82
sI5
g36
sI6
g35
sI7
g34
sI8
g35
sI9
g34
sI10
g36
sI11
g34
ssI12
(dp441
I0
g34
sI1
g35
sI2
g35
sI3
g34
sI4
g35
sI5
g36
sI6
g35
sI7
g34
sI8
g35
sI9
g34
sI10
g36
sI11
g34
sssbI1
tp442
sI13
(g1
(g2
g3
Ntp443
Rp444
(dp445
g7
(lp446
g9
ag10
ag11
ag12
ag13
ag14
ag15
ag16
ag17
ag18
aS'10'
p447
aS'11'
p448
aS'12'
p449
aS'13'
p450
aS'14'
p451
aS'15'
p452
aS'16'
p453
aS'17'
p454
aS'18'
p455
aS'19'
p456
asg29
g30
sg31
I01
sg32
(dp457
I0
g34
sI1
g35
sI2
g36
sI3
g34
sI4
g35
sI5
g34
sI6
g35
sI7
g36
sI8
g36
sI9
g34
sI10
g35
sI11
g34
sI12
g36
ssg37
g1
(g38
g3
Ntp458
Rp459
(dp460
g42
(dp461
I0
(dp462
sI1
(dp463
sI2
(dp464
sI3
(dp465
sI4
(dp466
sI5
(dp467
sI6
(dp468
sI7
(dp469
sI8
(dp470
sI9
(dp471
sI10
(dp472
sI11
(dp473
sI12
(dp474
ssg51
g52
sg53
g52
sg54
(dp475
I0
(dp476
I2
(dp477
sI10
(dp478
ssI1
(dp479
I8
(dp480
sI3
(dp481
sI7
(dp482
ssI2
(dp483
I0
g477
sI9
(dp484
sI3
(dp485
ssI3
(dp486
I1
g481
sI2
g485
sI4
(dp487
sI6
(dp488
sI7
(dp489
sI8
(dp490
sI12
(dp491
ssI4
(dp492
I8
(dp493
sI9
(dp494
sI3
g487
sI12
(dp495
ssI5
(dp496
I8
(dp497
sI10
(dp498
sI6
(dp499
ssI6
(dp500
I11
(dp501
sI3
g488
sI5
g499
sI7
(dp502
ssI7
(dp503
I1
g482
sI10
(dp504
sI3
g489
sI6
g502
sI9
(dp505
ssI8
(dp506
I1
g480
sI3
g490
sI4
g493
sI5
g497
ssI9
(dp507
I2
g484
sI4
g494
sI7
g505
ssI10
(dp508
I0
g478
sI12
(dp509
sI5
g498
sI7
g504
ssI11
(dp510
I6
g501
ssI12
(dp511
I10
g509
sI3
g491
sI4
g495
sssg37
(dp512
sg75
g52
sg76
g475
sbsg77
S'/home/mickael/Documents/projects/examination-scheduling/booth/plots/'
p513
sg79
(dp514
I0
(dp515
I0
g82
sI1
g82
sI2
g82
sI3
g82
sI4
g82
sI5
g82
sI6
g82
sI7
g82
sI8
g82
sI9
g82
sI10
g82
sI11
g82
sI12
g82
ssI1
(dp516
I0
g82
sI1
g82
sI2
g82
sI3
g34
sI4
g82
sI5
g82
sI6
g82
sI7
g82
sI8
g82
sI9
g82
sI10
g82
sI11
g82
sI12
g82
ssI2
(dp517
I0
g82
sI1
g82
sI2
g82
sI3
g34
sI4
g82
sI5
g82
sI6
g82
sI7
g82
sI8
g82
sI9
g82
sI10
g82
sI11
g34
sI12
g82
ssI3
(dp518
I0
g82
sI1
g82
sI2
g82
sI3
g34
sI4
g82
sI5
g82
sI6
g82
sI7
g36
sI8
g82
sI9
g82
sI10
g82
sI11
g34
sI12
g82
ssI4
(dp519
I0
g82
sI1
g82
sI2
g82
sI3
g34
sI4
g82
sI5
g82
sI6
g82
sI7
g36
sI8
g82
sI9
g82
sI10
g82
sI11
g34
sI12
g36
ssI5
(dp520
I0
g82
sI1
g35
sI2
g82
sI3
g34
sI4
g82
sI5
g82
sI6
g82
sI7
g36
sI8
g82
sI9
g82
sI10
g82
sI11
g34
sI12
g36
ssI6
(dp521
I0
g82
sI1
g35
sI2
g36
sI3
g34
sI4
g82
sI5
g82
sI6
g82
sI7
g36
sI8
g82
sI9
g82
sI10
g82
sI11
g34
sI12
g36
ssI7
(dp522
I0
g82
sI1
g35
sI2
g36
sI3
g34
sI4
g82
sI5
g34
sI6
g82
sI7
g36
sI8
g82
sI9
g82
sI10
g82
sI11
g34
sI12
g36
ssI8
(dp523
I0
g82
sI1
g35
sI2
g36
sI3
g34
sI4
g35
sI5
g34
sI6
g82
sI7
g36
sI8
g82
sI9
g82
sI10
g82
sI11
g34
sI12
g36
ssI9
(dp524
I0
g82
sI1
g35
sI2
g36
sI3
g34
sI4
g35
sI5
g34
sI6
g82
sI7
g36
sI8
g82
sI9
g82
sI10
g35
sI11
g34
sI12
g36
ssI10
(dp525
I0
g82
sI1
g35
sI2
g36
sI3
g34
sI4
g35
sI5
g34
sI6
g82
sI7
g36
sI8
g82
sI9
g34
sI10
g35
sI11
g34
sI12
g36
ssI11
(dp526
I0
g34
sI1
g35
sI2
g36
sI3
g34
sI4
g35
sI5
g34
sI6
g82
sI7
g36
sI8
g82
sI9
g34
sI10
g35
sI11
g34
sI12
g36
ssI12
(dp527
I0
g34
sI1
g35
sI2
g36
sI3
g34
sI4
g35
sI5
g34
sI6
g82
sI7
g36
sI8
g36
sI9
g34
sI10
g35
sI11
g34
sI12
g36
ssI13
(dp528
I0
g34
sI1
g35
sI2
g36
sI3
g34
sI4
g35
sI5
g34
sI6
g35
sI7
g36
sI8
g36
sI9
g34
sI10
g35
sI11
g34
sI12
g36
sssbI1
tp529
sI14
(g1
(g2
g3
Ntp530
Rp531
(dp532
g7
(lp533
g9
ag10
ag11
ag12
ag13
ag14
ag15
ag16
ag17
ag18
aS'10'
p534
aS'11'
p535
aS'12'
p536
aS'13'
p537
aS'14'
p538
aS'15'
p539
aS'16'
p540
aS'17'
p541
aS'18'
p542
aS'19'
p543
asg29
g30
sg31
I01
sg32
(dp544
I0
g34
sI1
g34
sI2
g34
sI3
g34
sI4
g36
sI5
g34
sI6
g36
sI7
g35
sI8
g36
sI9
g35
sI10
g35
sI11
g36
sI12
g34
sI13
g35
ssg37
g1
(g38
g3
Ntp545
Rp546
(dp547
g42
(dp548
I0
(dp549
sI1
(dp550
sI2
(dp551
sI3
(dp552
sI4
(dp553
sI5
(dp554
sI6
(dp555
sI7
(dp556
sI8
(dp557
sI9
(dp558
sI10
(dp559
sI11
(dp560
sI12
(dp561
sI13
(dp562
ssg51
g52
sg53
g52
sg54
(dp563
I0
(dp564
I4
(dp565
sI13
(dp566
sI7
(dp567
ssI1
(dp568
I11
(dp569
sI6
(dp570
ssI2
(dp571
I9
(dp572
sI4
(dp573
sI6
(dp574
sI7
(dp575
ssI3
(dp576
I9
(dp577
sI10
(dp578
sI4
(dp579
sI13
(dp580
ssI4
(dp581
I0
g565
sI9
(dp582
sI2
g573
sI3
g579
ssI5
(dp583
I8
(dp584
sI11
(dp585
sI13
(dp586
ssI6
(dp587
I1
g570
sI2
g574
sI9
(dp588
sI7
(dp589
ssI7
(dp590
I0
g567
sI2
g575
sI11
(dp591
sI12
(dp592
sI6
g589
ssI8
(dp593
I12
(dp594
sI5
g584
sI13
(dp595
ssI9
(dp596
I2
g572
sI3
g577
sI4
g582
sI6
g588
ssI10
(dp597
I11
(dp598
sI3
g578
sI12
(dp599
ssI11
(dp600
I1
g569
sI10
g598
sI13
(dp601
sI5
g585
sI7
g591
ssI12
(dp602
I8
g594
sI10
g599
sI13
(dp603
sI7
g592
ssI13
(dp604
I0
g566
sI3
g580
sI5
g586
sI8
g595
sI11
g601
sI12
g603
sssg37
(dp605
sg75
g52
sg76
g563
sbsg77
S'/home/mickael/Documents/projects/examination-scheduling/booth/plots/'
p606
sg79
(dp607
I0
(dp608
I0
g82
sI1
g82
sI2
g82
sI3
g82
sI4
g82
sI5
g82
sI6
g82
sI7
g82
sI8
g82
sI9
g82
sI10
g82
sI11
g82
sI12
g82
sI13
g82
ssI1
(dp609
I0
g82
sI1
g82
sI2
g82
sI3
g82
sI4
g82
sI5
g34
sI6
g82
sI7
g82
sI8
g82
sI9
g82
sI10
g82
sI11
g82
sI12
g82
sI13
g82
ssI2
(dp610
I0
g82
sI1
g34
sI2
g82
sI3
g82
sI4
g82
sI5
g34
sI6
g82
sI7
g82
sI8
g82
sI9
g82
sI10
g82
sI11
g82
sI12
g82
sI13
g82
ssI3
(dp611
I0
g82
sI1
g34
sI2
g82
sI3
g34
sI4
g82
sI5
g34
sI6
g82
sI7
g82
sI8
g82
sI9
g82
sI10
g82
sI11
g82
sI12
g82
sI13
g82
ssI4
(dp612
I0
g82
sI1
g34
sI2
g82
sI3
g34
sI4
g82
sI5
g34
sI6
g82
sI7
g82
sI8
g82
sI9
g82
sI10
g82
sI11
g36
sI12
g82
sI13
g82
ssI5
(dp613
I0
g82
sI1
g34
sI2
g82
sI3
g34
sI4
g82
sI5
g34
sI6
g82
sI7
g82
sI8
g36
sI9
g82
sI10
g82
sI11
g36
sI12
g82
sI13
g82
ssI6
(dp614
I0
g82
sI1
g34
sI2
g82
sI3
g34
sI4
g82
sI5
g34
sI6
g36
sI7
g82
sI8
g36
sI9
g82
sI10
g82
sI11
g36
sI12
g82
sI13
g82
ssI7
(dp615
I0
g82
sI1
g34
sI2
g34
sI3
g34
sI4
g82
sI5
g34
sI6
g36
sI7
g82
sI8
g36
sI9
g82
sI10
g82
sI11
g36
sI12
g82
sI13
g82
ssI8
(dp616
I0
g34
sI1
g34
sI2
g34
sI3
g34
sI4
g82
sI5
g34
sI6
g36
sI7
g82
sI8
g36
sI9
g82
sI10
g82
sI11
g36
sI12
g82
sI13
g82
ssI9
(dp617
I0
g34
sI1
g34
sI2
g34
sI3
g34
sI4
g82
sI5
g34
sI6
g36
sI7
g82
sI8
g36
sI9
g35
sI10
g82
sI11
g36
sI12
g82
sI13
g82
ssI10
(dp618
I0
g34
sI1
g34
sI2
g34
sI3
g34
sI4
g82
sI5
g34
sI6
g36
sI7
g82
sI8
g36
sI9
g35
sI10
g82
sI11
g36
sI12
g34
sI13
g82
ssI11
(dp619
I0
g34
sI1
g34
sI2
g34
sI3
g34
sI4
g82
sI5
g34
sI6
g36
sI7
g35
sI8
g36
sI9
g35
sI10
g82
sI11
g36
sI12
g34
sI13
g82
ssI12
(dp620
I0
g34
sI1
g34
sI2
g34
sI3
g34
sI4
g82
sI5
g34
sI6
g36
sI7
g35
sI8
g36
sI9
g35
sI10
g35
sI11
g36
sI12
g34
sI13
g82
ssI13
(dp621
I0
g34
sI1
g34
sI2
g34
sI3
g34
sI4
g82
sI5
g34
sI6
g36
sI7
g35
sI8
g36
sI9
g35
sI10
g35
sI11
g36
sI12
g34
sI13
g35
ssI14
(dp622
I0
g34
sI1
g34
sI2
g34
sI3
g34
sI4
g36
sI5
g34
sI6
g36
sI7
g35
sI8
g36
sI9
g35
sI10
g35
sI11
g36
sI12
g34
sI13
g35
sssbI1
tp623
sI15
(g1
(g2
g3
Ntp624
Rp625
(dp626
g7
(lp627
g9
ag10
ag11
ag12
ag13
ag14
ag15
ag16
ag17
ag18
aS'10'
p628
aS'11'
p629
aS'12'
p630
aS'13'
p631
aS'14'
p632
aS'15'
p633
aS'16'
p634
aS'17'
p635
aS'18'
p636
aS'19'
p637
asg29
g30
sg31
I01
sg32
(dp638
I0
g35
sI1
g34
sI2
g34
sI3
g36
sI4
g35
sI5
g34
sI6
g34
sI7
g36
sI8
g36
sI9
g34
sI10
g36
sI11
g36
sI12
g36
sI13
g35
sI14
g34
ssg37
g1
(g38
g3
Ntp639
Rp640
(dp641
g42
(dp642
I0
(dp643
sI1
(dp644
sI2
(dp645
sI3
(dp646
sI4
(dp647
sI5
(dp648
sI6
(dp649
sI7
(dp650
sI8
(dp651
sI9
(dp652
sI10
(dp653
sI11
(dp654
sI12
(dp655
sI13
(dp656
sI14
(dp657
ssg51
g52
sg53
g52
sg54
(dp658
I0
(dp659
I3
(dp660
sI5
(dp661
sI6
(dp662
sI7
(dp663
sI8
(dp664
sI9
(dp665
sI11
(dp666
ssI1
(dp667
I11
(dp668
sI3
(dp669
sI4
(dp670
sI7
(dp671
ssI2
(dp672
I8
(dp673
sI10
(dp674
sI12
(dp675
sI13
(dp676
ssI3
(dp677
I0
g660
sI1
g669
sI4
(dp678
sI9
(dp679
ssI4
(dp680
I1
g670
sI3
g678
sI12
(dp681
sI7
(dp682
ssI5
(dp683
I0
g661
sI13
(dp684
ssI6
(dp685
I0
g662
sI11
(dp686
sI12
(dp687
ssI7
(dp688
I0
g663
sI1
g671
sI4
g682
sI14
(dp689
ssI8
(dp690
I0
g664
sI2
g673
sI13
(dp691
sI14
(dp692
ssI9
(dp693
I0
g665
sI10
(dp694
sI3
g679
sI13
(dp695
ssI10
(dp696
I9
g694
sI2
g674
ssI11
(dp697
I0
g666
sI1
g668
sI13
(dp698
sI6
g686
ssI12
(dp699
I2
g675
sI4
g681
sI6
g687
ssI13
(dp700
I2
g676
sI5
g684
sI8
g691
sI9
g695
sI11
g698
sI14
(dp701
ssI14
(dp702
I8
g692
sI13
g701
sI7
g689
sssg37
(dp703
sg75
g52
sg76
g658
sbsg77
S'/home/mickael/Documents/projects/examination-scheduling/booth/plots/'
p704
sg79
(dp705
I0
(dp706
I0
g82
sI1
g82
sI2
g82
sI3
g82
sI4
g82
sI5
g82
sI6
g82
sI7
g82
sI8
g82
sI9
g82
sI10
g82
sI11
g82
sI12
g82
sI13
g82
sI14
g82
ssI1
(dp707
I0
g82
sI1
g82
sI2
g82
sI3
g82
sI4
g82
sI5
g82
sI6
g82
sI7
g82
sI8
g82
sI9
g82
sI10
g82
sI11
g82
sI12
g82
sI13
g82
sI14
g34
ssI2
(dp708
I0
g82
sI1
g82
sI2
g82
sI3
g82
sI4
g82
sI5
g82
sI6
g34
sI7
g82
sI8
g82
sI9
g82
sI10
g82
sI11
g82
sI12
g82
sI13
g82
sI14
g34
ssI3
(dp709
I0
g82
sI1
g82
sI2
g82
sI3
g82
sI4
g82
sI5
g82
sI6
g34
sI7
g82
sI8
g36
sI9
g82
sI10
g82
sI11
g82
sI12
g82
sI13
g82
sI14
g34
ssI4
(dp710
I0
g82
sI1
g82
sI2
g82
sI3
g82
sI4
g82
sI5
g82
sI6
g34
sI7
g36
sI8
g36
sI9
g82
sI10
g82
sI11
g82
sI12
g82
sI13
g82
sI14
g34
ssI5
(dp711
I0
g82
sI1
g82
sI2
g82
sI3
g82
sI4
g82
sI5
g82
sI6
g34
sI7
g36
sI8
g36
sI9
g82
sI10
g82
sI11
g82
sI12
g82
sI13
g35
sI14
g34
ssI6
(dp712
I0
g82
sI1
g82
sI2
g82
sI3
g82
sI4
g82
sI5
g82
sI6
g34
sI7
g36
sI8
g36
sI9
g82
sI10
g82
sI11
g82
sI12
g36
sI13
g35
sI14
g34
ssI7
(dp713
I0
g82
sI1
g34
sI2
g82
sI3
g82
sI4
g82
sI5
g82
sI6
g34
sI7
g36
sI8
g36
sI9
g82
sI10
g82
sI11
g82
sI12
g36
sI13
g35
sI14
g34
ssI8
(dp714
I0
g35
sI1
g34
sI2
g82
sI3
g82
sI4
g82
sI5
g82
sI6
g34
sI7
g36
sI8
g36
sI9
g82
sI10
g82
sI11
g82
sI12
g36
sI13
g35
sI14
g34
ssI9
(dp715
I0
g35
sI1
g34
sI2
g82
sI3
g82
sI4
g82
sI5
g34
sI6
g34
sI7
g36
sI8
g36
sI9
g82
sI10
g82
sI11
g82
sI12
g36
sI13
g35
sI14
g34
ssI10
(dp716
I0
g35
sI1
g34
sI2
g82
sI3
g82
sI4
g82
sI5
g34
sI6
g34
sI7
g36
sI8
g36
sI9
g34
sI10
g82
sI11
g82
sI12
g36
sI13
g35
sI14
g34
ssI11
(dp717
I0
g35
sI1
g34
sI2
g82
sI3
g36
sI4
g82
sI5
g34
sI6
g34
sI7
g36
sI8
g36
sI9
g34
sI10
g82
sI11
g82
sI12
g36
sI13
g35
sI14
g34
ssI12
(dp718
I0
g35
sI1
g34
sI2
g82
sI3
g36
sI4
g35
sI5
g34
sI6
g34
sI7
g36
sI8
g36
sI9
g34
sI10
g82
sI11
g82
sI12
g36
sI13
g35
sI14
g34
ssI13
(dp719
I0
g35
sI1
g34
sI2
g34
sI3
g36
sI4
g35
sI5
g34
sI6
g34
sI7
g36
sI8
g36
sI9
g34
sI10
g82
sI11
g82
sI12
g36
sI13
g35
sI14
g34
ssI14
(dp720
I0
g35
sI1
g34
sI2
g34
sI3
g36
sI4
g35
sI5
g34
sI6
g34
sI7
g36
sI8
g36
sI9
g34
sI10
g36
sI11
g82
sI12
g36
sI13
g35
sI14
g34
ssI15
(dp721
I0
g35
sI1
g34
sI2
g34
sI3
g36
sI4
g35
sI5
g34
sI6
g34
sI7
g36
sI8
g36
sI9
g34
sI10
g36
sI11
g36
sI12
g36
sI13
g35
sI14
g34
sssbI1
tp722
sI16
(g1
(g2
g3
Ntp723
Rp724
(dp725
g7
(lp726
g9
ag10
ag11
ag12
ag13
ag14
ag15
ag16
ag17
ag18
aS'10'
p727
aS'11'
p728
aS'12'
p729
aS'13'
p730
aS'14'
p731
aS'15'
p732
aS'16'
p733
aS'17'
p734
aS'18'
p735
aS'19'
p736
asg29
g30
sg31
I01
sg32
(dp737
I0
g34
sI1
S'purple'
p738
sI2
g36
sI3
g738
sI4
g34
sI5
g738
sI6
g34
sI7
g34
sI8
g36
sI9
g36
sI10
g738
sI11
g35
sI12
g34
sI13
g36
sI14
g36
sI15
g35
ssg37
g1
(g38
g3
Ntp739
Rp740
(dp741
g42
(dp742
I0
(dp743
sI1
(dp744
sI2
(dp745
sI3
(dp746
sI4
(dp747
sI5
(dp748
sI6
(dp749
sI7
(dp750
sI8
(dp751
sI9
(dp752
sI10
(dp753
sI11
(dp754
sI12
(dp755
sI13
(dp756
sI14
(dp757
sI15
(dp758
ssg51
g52
sg53
g52
sg54
(dp759
I0
(dp760
I11
(dp761
sI5
(dp762
sI13
(dp763
ssI1
(dp764
I8
(dp765
sI11
(dp766
sI14
(dp767
sI6
(dp768
ssI2
(dp769
I3
(dp770
sI4
(dp771
sI5
(dp772
sI6
(dp773
sI10
(dp774
sI11
(dp775
sI15
(dp776
ssI3
(dp777
I2
g770
sI4
(dp778
sI8
(dp779
sI9
(dp780
sI11
(dp781
sI12
(dp782
sI13
(dp783
ssI4
(dp784
I11
(dp785
sI2
g771
sI3
g778
sI13
(dp786
sI15
(dp787
ssI5
(dp788
I0
g762
sI2
g772
sI6
(dp789
sI7
(dp790
sI11
(dp791
sI15
(dp792
ssI6
(dp793
I1
g768
sI2
g773
sI10
(dp794
sI5
g789
sI15
(dp795
ssI7
(dp796
I8
(dp797
sI9
(dp798
sI5
g790
sI14
(dp799
ssI8
(dp800
I1
g765
sI3
g779
sI7
g797
ssI9
(dp801
I3
g780
sI12
(dp802
sI7
g798
ssI10
(dp803
I2
g774
sI11
(dp804
sI12
(dp805
sI13
(dp806
sI6
g794
ssI11
(dp807
I0
g761
sI1
g766
sI2
g775
sI3
g781
sI4
g785
sI5
g791
sI10
g804
ssI12
(dp808
I9
g802
sI10
g805
sI3
g782
ssI13
(dp809
I0
g763
sI10
g806
sI3
g783
sI4
g786
ssI14
(dp810
I1
g767
sI7
g799
ssI15
(dp811
I2
g776
sI4
g787
sI5
g792
sI6
g795
sssg37
(dp812
sg75
g52
sg76
g759
sbsg77
S'/home/mickael/Documents/projects/examination-scheduling/booth/plots/'
p813
sg79
(dp814
I0
(dp815
I0
g82
sI1
g82
sI2
g82
sI3
g82
sI4
g82
sI5
g82
sI6
g82
sI7
g82
sI8
g82
sI9
g82
sI10
g82
sI11
g82
sI12
g82
sI13
g82
sI14
g82
sI15
g82
ssI1
(dp816
I0
g82
sI1
g82
sI2
g82
sI3
g82
sI4
g34
sI5
g82
sI6
g82
sI7
g82
sI8
g82
sI9
g82
sI10
g82
sI11
g82
sI12
g82
sI13
g82
sI14
g82
sI15
g82
ssI2
(dp817
I0
g82
sI1
g82
sI2
g82
sI3
g82
sI4
g34
sI5
g82
sI6
g82
sI7
g82
sI8
g82
sI9
g82
sI10
g82
sI11
g82
sI12
g34
sI13
g82
sI14
g82
sI15
g82
ssI3
(dp818
I0
g82
sI1
g82
sI2
g36
sI3
g82
sI4
g34
sI5
g82
sI6
g82
sI7
g82
sI8
g82
sI9
g82
sI10
g82
sI11
g82
sI12
g34
sI13
g82
sI14
g82
sI15
g82
ssI4
(dp819
I0
g82
sI1
g82
sI2
g36
sI3
g82
sI4
g34
sI5
g82
sI6
g82
sI7
g82
sI8
g82
sI9
g36
sI10
g82
sI11
g82
sI12
g34
sI13
g82
sI14
g82
sI15
g82
ssI5
(dp820
I0
g34
sI1
g82
sI2
g36
sI3
g82
sI4
g34
sI5
g82
sI6
g82
sI7
g82
sI8
g82
sI9
g36
sI10
g82
sI11
g82
sI12
g34
sI13
g82
sI14
g82
sI15
g82
ssI6
(dp821
I0
g34
sI1
g82
sI2
g36
sI3
g82
sI4
g34
sI5
g82
sI6
g82
sI7
g82
sI8
g82
sI9
g36
sI10
g82
sI11
g82
sI12
g34
sI13
g36
sI14
g82
sI15
g82
ssI7
(dp822
I0
g34
sI1
g82
sI2
g36
sI3
g82
sI4
g34
sI5
g82
sI6
g82
sI7
g34
sI8
g82
sI9
g36
sI10
g82
sI11
g82
sI12
g34
sI13
g36
sI14
g82
sI15
g82
ssI8
(dp823
I0
g34
sI1
g82
sI2
g36
sI3
g82
sI4
g34
sI5
g82
sI6
g82
sI7
g34
sI8
g82
sI9
g36
sI10
g82
sI11
g82
sI12
g34
sI13
g36
sI14
g36
sI15
g82
ssI9
(dp824
I0
g34
sI1
g82
sI2
g36
sI3
g82
sI4
g34
sI5
g82
sI6
g82
sI7
g34
sI8
g82
sI9
g36
sI10
g82
sI11
g35
sI12
g34
sI13
g36
sI14
g36
sI15
g82
ssI10
(dp825
I0
g34
sI1
g82
sI2
g36
sI3
g82
sI4
g34
sI5
g82
sI6
g82
sI7
g34
sI8
g36
sI9
g36
sI10
g82
sI11
g35
sI12
g34
sI13
g36
sI14
g36
sI15
g82
ssI11
(dp826
I0
g34
sI1
g82
sI2
g36
sI3
g82
sI4
g34
sI5
g82
sI6
g34
sI7
g34
sI8
g36
sI9
g36
sI10
g82
sI11
g35
sI12
g34
sI13
g36
sI14
g36
sI15
g82
ssI12
(dp827
I0
g34
sI1
g82
sI2
g36
sI3
g82
sI4
g34
sI5
g82
sI6
g34
sI7
g34
sI8
g36
sI9
g36
sI10
g738
sI11
g35
sI12
g34
sI13
g36
sI14
g36
sI15
g82
ssI13
(dp828
I0
g34
sI1
g738
sI2
g36
sI3
g82
sI4
g34
sI5
g82
sI6
g34
sI7
g34
sI8
g36
sI9
g36
sI10
g738
sI11
g35
sI12
g34
sI13
g36
sI14
g36
sI15
g82
ssI14
(dp829
I0
g34
sI1
g738
sI2
g36
sI3
g82
sI4
g34
sI5
g82
sI6
g34
sI7
g34
sI8
g36
sI9
g36
sI10
g738
sI11
g35
sI12
g34
sI13
g36
sI14
g36
sI15
g35
ssI15
(dp830
I0
g34
sI1
g738
sI2
g36
sI3
g82
sI4
g34
sI5
g738
sI6
g34
sI7
g34
sI8
g36
sI9
g36
sI10
g738
sI11
g35
sI12
g34
sI13
g36
sI14
g36
sI15
g35
ssI16
(dp831
I0
g34
sI1
g738
sI2
g36
sI3
g738
sI4
g34
sI5
g738
sI6
g34
sI7
g34
sI8
g36
sI9
g36
sI10
g738
sI11
g35
sI12
g34
sI13
g36
sI14
g36
sI15
g35
sssbI1
tp832
sI17
(g1
(g2
g3
Ntp833
Rp834
(dp835
g7
(lp836
g9
ag10
ag11
ag12
ag13
ag14
ag15
ag16
ag17
ag18
aS'10'
p837
aS'11'
p838
aS'12'
p839
aS'13'
p840
aS'14'
p841
aS'15'
p842
aS'16'
p843
aS'17'
p844
aS'18'
p845
aS'19'
p846
asg29
g30
sg31
I01
sg32
(dp847
I0
g35
sI1
g34
sI2
g36
sI3
g34
sI4
g36
sI5
g35
sI6
g738
sI7
g34
sI8
g35
sI9
g34
sI10
g34
sI11
g35
sI12
g36
sI13
g738
sI14
g36
sI15
g35
sI16
g34
ssg37
g1
(g38
g3
Ntp848
Rp849
(dp850
g42
(dp851
I0
(dp852
sI1
(dp853
sI2
(dp854
sI3
(dp855
sI4
(dp856
sI5
(dp857
sI6
(dp858
sI7
(dp859
sI8
(dp860
sI9
(dp861
sI10
(dp862
sI11
(dp863
sI12
(dp864
sI13
(dp865
sI14
(dp866
sI15
(dp867
sI16
(dp868
ssg51
g52
sg53
g52
sg54
(dp869
I0
(dp870
I1
(dp871
sI2
(dp872
sI3
(dp873
sI4
(dp874
sI10
(dp875
sI13
(dp876
ssI1
(dp877
I0
g871
ssI2
(dp878
I0
g872
sI5
(dp879
sI6
(dp880
sI7
(dp881
sI8
(dp882
sI10
(dp883
ssI3
(dp884
I0
g873
sI13
(dp885
sI6
(dp886
ssI4
(dp887
I0
g874
sI10
(dp888
sI15
(dp889
ssI5
(dp890
I2
g879
sI6
(dp891
sI7
(dp892
sI9
(dp893
sI10
(dp894
sI13
(dp895
ssI6
(dp896
I2
g880
sI3
g886
sI5
g891
sI7
(dp897
sI9
(dp898
sI10
(dp899
sI14
(dp900
sI15
(dp901
ssI7
(dp902
I2
g881
sI5
g892
sI6
g897
sI11
(dp903
sI12
(dp904
sI14
(dp905
sI15
(dp906
ssI8
(dp907
I16
(dp908
sI9
(dp909
sI2
g882
ssI9
(dp910
I8
g909
sI12
(dp911
sI5
g893
sI6
g898
sI15
(dp912
ssI10
(dp913
I0
g875
sI2
g883
sI4
g888
sI5
g894
sI6
g899
ssI11
(dp914
I16
(dp915
sI13
(dp916
sI14
(dp917
sI7
g903
ssI12
(dp918
I9
g911
sI15
(dp919
sI13
(dp920
sI7
g904
ssI13
(dp921
I0
g876
sI3
g885
sI5
g895
sI11
g916
sI12
g920
sI16
(dp922
ssI14
(dp923
I11
g917
sI6
g900
sI7
g905
ssI15
(dp924
I9
g912
sI4
g889
sI12
g919
sI6
g901
sI7
g906
ssI16
(dp925
I8
g908
sI11
g915
sI13
g922
sssg37
(dp926
sg75
g52
sg76
g869
sbsg77
S'/home/mickael/Documents/projects/examination-scheduling/booth/plots/'
p927
sg79
(dp928
I0
(dp929
I0
g82
sI1
g82
sI2
g82
sI3
g82
sI4
g82
sI5
g82
sI6
g82
sI7
g82
sI8
g82
sI9
g82
sI10
g82
sI11
g82
sI12
g82
sI13
g82
sI14
g82
sI15
g82
sI16
g82
ssI1
(dp930
I0
g82
sI1
g34
sI2
g82
sI3
g82
sI4
g82
sI5
g82
sI6
g82
sI7
g82
sI8
g82
sI9
g82
sI10
g82
sI11
g82
sI12
g82
sI13
g82
sI14
g82
sI15
g82
sI16
g82
ssI2
(dp931
I0
g82
sI1
g34
sI2
g82
sI3
g82
sI4
g82
sI5
g82
sI6
g82
sI7
g82
sI8
g82
sI9
g82
sI10
g82
sI11
g82
sI12
g82
sI13
g82
sI14
g82
sI15
g82
sI16
g34
ssI3
(dp932
I0
g82
sI1
g34
sI2
g82
sI3
g82
sI4
g82
sI5
g82
sI6
g82
sI7
g34
sI8
g82
sI9
g82
sI10
g82
sI11
g82
sI12
g82
sI13
g82
sI14
g82
sI15
g82
sI16
g34
ssI4
(dp933
I0
g82
sI1
g34
sI2
g82
sI3
g82
sI4
g82
sI5
g82
sI6
g82
sI7
g34
sI8
g82
sI9
g82
sI10
g82
sI11
g82
sI12
g82
sI13
g82
sI14
g36
sI15
g82
sI16
g34
ssI5
(dp934
I0
g82
sI1
g34
sI2
g82
sI3
g82
sI4
g82
sI5
g82
sI6
g82
sI7
g34
sI8
g82
sI9
g82
sI10
g82
sI11
g82
sI12
g36
sI13
g82
sI14
g36
sI15
g82
sI16
g34
ssI6
(dp935
I0
g82
sI1
g34
sI2
g82
sI3
g82
sI4
g82
sI5
g82
sI6
g82
sI7
g34
sI8
g82
sI9
g82
sI10
g34
sI11
g82
sI12
g36
sI13
g82
sI14
g36
sI15
g82
sI16
g34
ssI7
(dp936
I0
g82
sI1
g34
sI2
g82
sI3
g82
sI4
g36
sI5
g82
sI6
g82
sI7
g34
sI8
g82
sI9
g82
sI10
g34
sI11
g82
sI12
g36
sI13
g82
sI14
g36
sI15
g82
sI16
g34
ssI8
(dp937
I0
g35
sI1
g34
sI2
g82
sI3
g82
sI4
g36
sI5
g82
sI6
g82
sI7
g34
sI8
g82
sI9
g82
sI10
g34
sI11
g82
sI12
g36
sI13
g82
sI14
g36
sI15
g82
sI16
g34
ssI9
(dp938
I0
g35
sI1
g34
sI2
g82
sI3
g82
sI4
g36
sI5
g82
sI6
g82
sI7
g34
sI8
g82
sI9
g82
sI10
g34
sI11
g35
sI12
g36
sI13
g82
sI14
g36
sI15
g82
sI16
g34
ssI10
(dp939
I0
g35
sI1
g34
sI2
g82
sI3
g82
sI4
g36
sI5
g82
sI6
g82
sI7
g34
sI8
g82
sI9
g82
sI10
g34
sI11
g35
sI12
g36
sI13
g82
sI14
g36
sI15
g35
sI16
g34
ssI11
(dp940
I0
g35
sI1
g34
sI2
g82
sI3
g82
sI4
g36
sI5
g82
sI6
g82
sI7
g34
sI8
g82
sI9
g34
sI10
g34
sI11
g35
sI12
g36
sI13
g82
sI14
g36
sI15
g35
sI16
g34
ssI12
(dp941
I0
g35
sI1
g34
sI2
g82
sI3
g34
sI4
g36
sI5
g82
sI6
g82
sI7
g34
sI8
g82
sI9
g34
sI10
g34
sI11
g35
sI12
g36
sI13
g82
sI14
g36
sI15
g35
sI16
g34
ssI13
(dp942
I0
g35
sI1
g34
sI2
g36
sI3
g34
sI4
g36
sI5
g82
sI6
g82
sI7
g34
sI8
g82
sI9
g34
sI10
g34
sI11
g35
sI12
g36
sI13
g82
sI14
g36
sI15
g35
sI16
g34
ssI14
(dp943
I0
g35
sI1
g34
sI2
g36
sI3
g34
sI4
g36
sI5
g35
sI6
g82
sI7
g34
sI8
g82
sI9
g34
sI10
g34
sI11
g35
sI12
g36
sI13
g82
sI14
g36
sI15
g35
sI16
g34
ssI15
(dp944
I0
g35
sI1
g34
sI2
g36
sI3
g34
sI4
g36
sI5
g35
sI6
g82
sI7
g34
sI8
g35
sI9
g34
sI10
g34
sI11
g35
sI12
g36
sI13
g82
sI14
g36
sI15
g35
sI16
g34
ssI16
(dp945
I0
g35
sI1
g34
sI2
g36
sI3
g34
sI4
g36
sI5
g35
sI6
g82
sI7
g34
sI8
g35
sI9
g34
sI10
g34
sI11
g35
sI12
g36
sI13
g738
sI14
g36
sI15
g35
sI16
g34
ssI17
(dp946
I0
g35
sI1
g34
sI2
g36
sI3
g34
sI4
g36
sI5
g35
sI6
g738
sI7
g34
sI8
g35
sI9
g34
sI10
g34
sI11
g35
sI12
g36
sI13
g738
sI14
g36
sI15
g35
sI16
g34
sssbI1
tp947
sI18
(g1
(g2
g3
Ntp948
Rp949
(dp950
g7
(lp951
g9
ag10
ag11
ag12
ag13
ag14
ag15
ag16
ag17
ag18
aS'10'
p952
aS'11'
p953
aS'12'
p954
aS'13'
p955
aS'14'
p956
aS'15'
p957
aS'16'
p958
aS'17'
p959
aS'18'
p960
aS'19'
p961
asg29
g30
sg31
I01
sg32
(dp962
I0
g35
sI1
g34
sI2
g36
sI3
g36
sI4
g35
sI5
g35
sI6
g34
sI7
g36
sI8
g34
sI9
g36
sI10
g35
sI11
g34
sI12
g35
sI13
g34
sI14
g34
sI15
g36
sI16
g34
sI17
g36
ssg37
g1
(g38
g3
Ntp963
Rp964
(dp965
g42
(dp966
I0
(dp967
sI1
(dp968
sI2
(dp969
sI3
(dp970
sI4
(dp971
sI5
(dp972
sI6
(dp973
sI7
(dp974
sI8
(dp975
sI9
(dp976
sI10
(dp977
sI11
(dp978
sI12
(dp979
sI13
(dp980
sI14
(dp981
sI15
(dp982
sI16
(dp983
sI17
(dp984
ssg51
g52
sg53
g52
sg54
(dp985
I0
(dp986
I2
(dp987
sI3
(dp988
sI7
(dp989
sI8
(dp990
sI9
(dp991
sI11
(dp992
ssI1
(dp993
I3
(dp994
sI4
(dp995
sI5
(dp996
sI7
(dp997
sI10
(dp998
sI15
(dp999
ssI2
(dp1000
I0
g987
sI8
(dp1001
sI5
(dp1002
sI13
(dp1003
ssI3
(dp1004
I0
g988
sI1
g994
sI4
(dp1005
sI6
(dp1006
sI13
(dp1007
sI14
(dp1008
sI16
(dp1009
ssI4
(dp1010
I15
(dp1011
sI1
g995
sI3
g1005
sI16
(dp1012
sI9
(dp1013
ssI5
(dp1014
I1
g996
sI2
g1002
sI9
(dp1015
sI11
(dp1016
sI13
(dp1017
sI16
(dp1018
sI17
(dp1019
ssI6
(dp1020
I9
(dp1021
sI3
g1006
sI17
(dp1022
ssI7
(dp1023
I0
g989
sI1
g997
sI8
(dp1024
sI10
(dp1025
sI12
(dp1026
sI14
(dp1027
ssI8
(dp1028
I0
g990
sI2
g1001
sI7
g1024
sI12
(dp1029
sI15
(dp1030
sI17
(dp1031
ssI9
(dp1032
I0
g991
sI4
g1013
sI5
g1015
sI6
g1021
sI11
(dp1033
sI13
(dp1034
sI16
(dp1035
ssI10
(dp1036
I16
(dp1037
sI1
g998
sI14
(dp1038
sI7
g1025
ssI11
(dp1039
I0
g992
sI9
g1033
sI5
g1016
sI15
(dp1040
ssI12
(dp1041
I8
g1029
sI16
(dp1042
sI15
(dp1043
sI17
(dp1044
sI7
g1026
ssI13
(dp1045
I9
g1034
sI2
g1003
sI3
g1007
sI5
g1017
sI15
(dp1046
ssI14
(dp1047
I15
(dp1048
sI17
(dp1049
sI10
g1038
sI3
g1008
sI7
g1027
ssI15
(dp1050
I1
g999
sI4
g1011
sI8
g1030
sI11
g1040
sI12
g1043
sI13
g1046
sI14
g1048
ssI16
(dp1051
I3
g1009
sI4
g1012
sI5
g1018
sI9
g1035
sI10
g1037
sI12
g1042
sI17
(dp1052
ssI17
(dp1053
I5
g1019
sI6
g1022
sI8
g1031
sI12
g1044
sI14
g1049
sI16
g1052
sssg37
(dp1054
sg75
g52
sg76
g985
sbsg77
S'/home/mickael/Documents/projects/examination-scheduling/booth/plots/'
p1055
sg79
(dp1056
I0
(dp1057
I0
g82
sI1
g82
sI2
g82
sI3
g82
sI4
g82
sI5
g82
sI6
g82
sI7
g82
sI8
g82
sI9
g82
sI10
g82
sI11
g82
sI12
g82
sI13
g82
sI14
g82
sI15
g82
sI16
g82
sI17
g82
ssI1
(dp1058
I0
g82
sI1
g82
sI2
g82
sI3
g82
sI4
g82
sI5
g82
sI6
g82
sI7
g82
sI8
g34
sI9
g82
sI10
g82
sI11
g82
sI12
g82
sI13
g82
sI14
g82
sI15
g82
sI16
g82
sI17
g82
ssI2
(dp1059
I0
g82
sI1
g82
sI2
g82
sI3
g82
sI4
g82
sI5
g82
sI6
g82
sI7
g82
sI8
g34
sI9
g82
sI10
g82
sI11
g34
sI12
g82
sI13
g82
sI14
g82
sI15
g82
sI16
g82
sI17
g82
ssI3
(dp1060
I0
g82
sI1
g82
sI2
g82
sI3
g82
sI4
g82
sI5
g82
sI6
g82
sI7
g36
sI8
g34
sI9
g82
sI10
g82
sI11
g34
sI12
g82
sI13
g82
sI14
g82
sI15
g82
sI16
g82
sI17
g82
ssI4
(dp1061
I0
g82
sI1
g82
sI2
g82
sI3
g82
sI4
g82
sI5
g82
sI6
g82
sI7
g36
sI8
g34
sI9
g82
sI10
g82
sI11
g34
sI12
g35
sI13
g82
sI14
g82
sI15
g82
sI16
g82
sI17
g82
ssI5
(dp1062
I0
g82
sI1
g82
sI2
g82
sI3
g82
sI4
g82
sI5
g82
sI6
g82
sI7
g36
sI8
g34
sI9
g82
sI10
g82
sI11
g34
sI12
g35
sI13
g82
sI14
g82
sI15
g82
sI16
g34
sI17
g82
ssI6
(dp1063
I0
g82
sI1
g82
sI2
g82
sI3
g82
sI4
g82
sI5
g82
sI6
g82
sI7
g36
sI8
g34
sI9
g82
sI10
g82
sI11
g34
sI12
g35
sI13
g82
sI14
g34
sI15
g82
sI16
g34
sI17
g82
ssI7
(dp1064
I0
g82
sI1
g82
sI2
g82
sI3
g82
sI4
g82
sI5
g82
sI6
g82
sI7
g36
sI8
g34
sI9
g82
sI10
g35
sI11
g34
sI12
g35
sI13
g82
sI14
g34
sI15
g82
sI16
g34
sI17
g82
ssI8
(dp1065
I0
g35
sI1
g82
sI2
g82
sI3
g82
sI4
g82
sI5
g82
sI6
g82
sI7
g36
sI8
g34
sI9
g82
sI10
g35
sI11
g34
sI12
g35
sI13
g82
sI14
g34
sI15
g82
sI16
g34
sI17
g82
ssI9
(dp1066
I0
g35
sI1
g82
sI2
g36
sI3
g82
sI4
g82
sI5
g82
sI6
g82
sI7
g36
sI8
g34
sI9
g82
sI10
g35
sI11
g34
sI12
g35
sI13
g82
sI14
g34
sI15
g82
sI16
g34
sI17
g82
ssI10
(dp1067
I0
g35
sI1
g82
sI2
g36
sI3
g82
sI4
g82
sI5
g82
sI6
g34
sI7
g36
sI8
g34
sI9
g82
sI10
g35
sI11
g34
sI12
g35
sI13
g82
sI14
g34
sI15
g82
sI16
g34
sI17
g82
ssI11
(dp1068
I0
g35
sI1
g82
sI2
g36
sI3
g82
sI4
g82
sI5
g82
sI6
g34
sI7
g36
sI8
g34
sI9
g82
sI10
g35
sI11
g34
sI12
g35
sI13
g82
sI14
g34
sI15
g36
sI16
g34
sI17
g82
ssI12
(dp1069
I0
g35
sI1
g82
sI2
g36
sI3
g82
sI4
g82
sI5
g82
sI6
g34
sI7
g36
sI8
g34
sI9
g36
sI10
g35
sI11
g34
sI12
g35
sI13
g82
sI14
g34
sI15
g36
sI16
g34
sI17
g82
ssI13
(dp1070
I0
g35
sI1
g82
sI2
g36
sI3
g82
sI4
g82
sI5
g82
sI6
g34
sI7
g36
sI8
g34
sI9
g36
sI10
g35
sI11
g34
sI12
g35
sI13
g34
sI14
g34
sI15
g36
sI16
g34
sI17
g82
ssI14
(dp1071
I0
g35
sI1
g82
sI2
g36
sI3
g82
sI4
g35
sI5
g82
sI6
g34
sI7
g36
sI8
g34
sI9
g36
sI10
g35
sI11
g34
sI12
g35
sI13
g34
sI14
g34
sI15
g36
sI16
g34
sI17
g82
ssI15
(dp1072
I0
g35
sI1
g82
sI2
g36
sI3
g36
sI4
g35
sI5
g82
sI6
g34
sI7
g36
sI8
g34
sI9
g36
sI10
g35
sI11
g34
sI12
g35
sI13
g34
sI14
g34
sI15
g36
sI16
g34
sI17
g82
ssI16
(dp1073
I0
g35
sI1
g82
sI2
g36
sI3
g36
sI4
g35
sI5
g35
sI6
g34
sI7
g36
sI8
g34
sI9
g36
sI10
g35
sI11
g34
sI12
g35
sI13
g34
sI14
g34
sI15
g36
sI16
g34
sI17
g82
ssI17
(dp1074
I0
g35
sI1
g34
sI2
g36
sI3
g36
sI4
g35
sI5
g35
sI6
g34
sI7
g36
sI8
g34
sI9
g36
sI10
g35
sI11
g34
sI12
g35
sI13
g34
sI14
g34
sI15
g36
sI16
g34
sI17
g82
ssI18
(dp1075
I0
g35
sI1
g34
sI2
g36
sI3
g36
sI4
g35
sI5
g35
sI6
g34
sI7
g36
sI8
g34
sI9
g36
sI10
g35
sI11
g34
sI12
g35
sI13
g34
sI14
g34
sI15
g36
sI16
g34
sI17
g36
sssbI2
tp1076
sI19
(g1
(g2
g3
Ntp1077
Rp1078
(dp1079
g7
(lp1080
g9
ag10
ag11
ag12
ag13
ag14
ag15
ag16
ag17
ag18
aS'10'
p1081
aS'11'
p1082
aS'12'
p1083
aS'13'
p1084
aS'14'
p1085
aS'15'
p1086
aS'16'
p1087
aS'17'
p1088
aS'18'
p1089
aS'19'
p1090
asg29
g30
sg31
I01
sg32
(dp1091
I0
g36
sI1
g34
sI2
g36
sI3
g35
sI4
g35
sI5
g738
sI6
g34
sI7
g36
sI8
g36
sI9
g34
sI10
g34
sI11
g738
sI12
g34
sI13
g34
sI14
g36
sI15
g34
sI16
g738
sI17
g35
sI18
g35
ssg37
g1
(g38
g3
Ntp1092
Rp1093
(dp1094
g42
(dp1095
I0
(dp1096
sI1
(dp1097
sI2
(dp1098
sI3
(dp1099
sI4
(dp1100
sI5
(dp1101
sI6
(dp1102
sI7
(dp1103
sI8
(dp1104
sI9
(dp1105
sI10
(dp1106
sI11
(dp1107
sI12
(dp1108
sI13
(dp1109
sI14
(dp1110
sI15
(dp1111
sI16
(dp1112
sI17
(dp1113
sI18
(dp1114
ssg51
g52
sg53
g52
sg54
(dp1115
I0
(dp1116
I4
(dp1117
sI5
(dp1118
sI11
(dp1119
sI13
(dp1120
sI16
(dp1121
sI17
(dp1122
sI18
(dp1123
ssI1
(dp1124
I3
(dp1125
sI4
(dp1126
sI5
(dp1127
sI8
(dp1128
sI11
(dp1129
sI14
(dp1130
sI16
(dp1131
ssI2
(dp1132
I16
(dp1133
sI9
(dp1134
sI5
(dp1135
sI6
(dp1136
ssI3
(dp1137
I1
g1125
sI5
(dp1138
sI7
(dp1139
sI8
(dp1140
sI10
(dp1141
sI13
(dp1142
ssI4
(dp1143
I0
g1117
sI1
g1126
sI11
(dp1144
sI15
(dp1145
sI9
(dp1146
ssI5
(dp1147
I0
g1118
sI1
g1127
sI2
g1135
sI3
g1138
sI6
(dp1148
sI7
(dp1149
sI9
(dp1150
sI10
(dp1151
sI14
(dp1152
ssI6
(dp1153
I2
g1136
sI5
g1148
sI14
(dp1154
ssI7
(dp1155
I3
g1139
sI5
g1149
sI9
(dp1156
sI13
(dp1157
sI15
(dp1158
sI18
(dp1159
ssI8
(dp1160
I1
g1128
sI3
g1140
sI9
(dp1161
sI10
(dp1162
sI11
(dp1163
sI17
(dp1164
ssI9
(dp1165
I2
g1134
sI4
g1146
sI5
g1150
sI7
g1156
sI8
g1161
sI16
(dp1166
ssI10
(dp1167
I8
g1162
sI16
(dp1168
sI18
(dp1169
sI3
g1141
sI5
g1151
ssI11
(dp1170
I0
g1119
sI1
g1129
sI4
g1144
sI8
g1163
sI12
(dp1171
sI14
(dp1172
ssI12
(dp1173
I18
(dp1174
sI11
g1171
ssI13
(dp1175
I0
g1120
sI3
g1142
sI7
g1157
sI14
(dp1176
sI16
(dp1177
sI18
(dp1178
ssI14
(dp1179
I1
g1130
sI11
g1172
sI5
g1152
sI6
g1154
sI13
g1176
ssI15
(dp1180
I17
(dp1181
sI4
g1145
sI7
g1158
ssI16
(dp1182
I0
g1121
sI1
g1131
sI2
g1133
sI9
g1166
sI10
g1168
sI13
g1177
sI18
(dp1183
ssI17
(dp1184
I0
g1122
sI8
g1164
sI15
g1181
ssI18
(dp1185
I0
g1123
sI7
g1159
sI10
g1169
sI12
g1174
sI13
g1178
sI16
g1183
sssg37
(dp1186
sg75
g52
sg76
g1115
sbsg77
S'/home/mickael/Documents/projects/examination-scheduling/booth/plots/'
p1187
sg79
(dp1188
I0
(dp1189
I0
g82
sI1
g82
sI2
g82
sI3
g82
sI4
g82
sI5
g82
sI6
g82
sI7
g82
sI8
g82
sI9
g82
sI10
g82
sI11
g82
sI12
g82
sI13
g82
sI14
g82
sI15
g82
sI16
g82
sI17
g82
sI18
g82
ssI1
(dp1190
I0
g82
sI1
g34
sI2
g82
sI3
g82
sI4
g82
sI5
g82
sI6
g82
sI7
g82
sI8
g82
sI9
g82
sI10
g82
sI11
g82
sI12
g82
sI13
g82
sI14
g82
sI15
g82
sI16
g82
sI17
g82
sI18
g82
ssI2
(dp1191
I0
g82
sI1
g34
sI2
g82
sI3
g82
sI4
g82
sI5
g82
sI6
g82
sI7
g82
sI8
g82
sI9
g82
sI10
g82
sI11
g82
sI12
g82
sI13
g34
sI14
g82
sI15
g82
sI16
g82
sI17
g82
sI18
g82
ssI3
(dp1192
I0
g82
sI1
g34
sI2
g82
sI3
g82
sI4
g82
sI5
g82
sI6
g82
sI7
g82
sI8
g82
sI9
g82
sI10
g82
sI11
g82
sI12
g34
sI13
g34
sI14
g82
sI15
g82
sI16
g82
sI17
g82
sI18
g82
ssI4
(dp1193
I0
g82
sI1
g34
sI2
g82
sI3
g82
sI4
g82
sI5
g82
sI6
g82
sI7
g36
sI8
g82
sI9
g82
sI10
g82
sI11
g82
sI12
g34
sI13
g34
sI14
g82
sI15
g82
sI16
g82
sI17
g82
sI18
g82
ssI5
(dp1194
I0
g36
sI1
g34
sI2
g82
sI3
g82
sI4
g82
sI5
g82
sI6
g82
sI7
g36
sI8
g82
sI9
g82
sI10
g82
sI11
g82
sI12
g34
sI13
g34
sI14
g82
sI15
g82
sI16
g82
sI17
g82
sI18
g82
ssI6
(dp1195
I0
g36
sI1
g34
sI2
g82
sI3
g82
sI4
g82
sI5
g82
sI6
g82
sI7
g36
sI8
g82
sI9
g82
sI10
g82
sI11
g82
sI12
g34
sI13
g34
sI14
g36
sI15
g82
sI16
g82
sI17
g82
sI18
g82
ssI7
(dp1196
I0
g36
sI1
g34
sI2
g82
sI3
g82
sI4
g82
sI5
g82
sI6
g82
sI7
g36
sI8
g82
sI9
g82
sI10
g82
sI11
g82
sI12
g34
sI13
g34
sI14
g36
sI15
g34
sI16
g82
sI17
g82
sI18
g82
ssI8
(dp1197
I0
g36
sI1
g34
sI2
g82
sI3
g82
sI4
g82
sI5
g82
sI6
g82
sI7
g36
sI8
g36
sI9
g82
sI10
g82
sI11
g82
sI12
g34
sI13
g34
sI14
g36
sI15
g34
sI16
g82
sI17
g82
sI18
g82
ssI9
(dp1198
I0
g36
sI1
g34
sI2
g82
sI3
g82
sI4
g35
sI5
g82
sI6
g82
sI7
g36
sI8
g36
sI9
g82
sI10
g82
sI11
g82
sI12
g34
sI13
g34
sI14
g36
sI15
g34
sI16
g82
sI17
g82
sI18
g82
ssI10
(dp1199
I0
g36
sI1
g34
sI2
g82
sI3
g82
sI4
g35
sI5
g82
sI6
g82
sI7
g36
sI8
g36
sI9
g82
sI10
g34
sI11
g82
sI12
g34
sI13
g34
sI14
g36
sI15
g34
sI16
g82
sI17
g82
sI18
g82
ssI11
(dp1200
I0
g36
sI1
g34
sI2
g82
sI3
g82
sI4
g35
sI5
g82
sI6
g34
sI7
g36
sI8
g36
sI9
g82
sI10
g34
sI11
g82
sI12
g34
sI13
g34
sI14
g36
sI15
g34
sI16
g82
sI17
g82
sI18
g82
ssI12
(dp1201
I0
g36
sI1
g34
sI2
g82
sI3
g82
sI4
g35
sI5
g82
sI6
g34
sI7
g36
sI8
g36
sI9
g34
sI10
g34
sI11
g82
sI12
g34
sI13
g34
sI14
g36
sI15
g34
sI16
g82
sI17
g82
sI18
g82
ssI13
(dp1202
I0
g36
sI1
g34
sI2
g82
sI3
g35
sI4
g35
sI5
g82
sI6
g34
sI7
g36
sI8
g36
sI9
g34
sI10
g34
sI11
g82
sI12
g34
sI13
g34
sI14
g36
sI15
g34
sI16
g82
sI17
g82
sI18
g82
ssI14
(dp1203
I0
g36
sI1
g34
sI2
g82
sI3
g35
sI4
g35
sI5
g82
sI6
g34
sI7
g36
sI8
g36
sI9
g34
sI10
g34
sI11
g738
sI12
g34
sI13
g34
sI14
g36
sI15
g34
sI16
g82
sI17
g82
sI18
g82
ssI15
(dp1204
I0
g36
sI1
g34
sI2
g82
sI3
g35
sI4
g35
sI5
g82
sI6
g34
sI7
g36
sI8
g36
sI9
g34
sI10
g34
sI11
g738
sI12
g34
sI13
g34
sI14
g36
sI15
g34
sI16
g82
sI17
g82
sI18
g35
ssI16
(dp1205
I0
g36
sI1
g34
sI2
g82
sI3
g35
sI4
g35
sI5
g82
sI6
g34
sI7
g36
sI8
g36
sI9
g34
sI10
g34
sI11
g738
sI12
g34
sI13
g34
sI14
g36
sI15
g34
sI16
g82
sI17
g35
sI18
g35
ssI17
(dp1206
I0
g36
sI1
g34
sI2
g82
sI3
g35
sI4
g35
sI5
g738
sI6
g34
sI7
g36
sI8
g36
sI9
g34
sI10
g34
sI11
g738
sI12
g34
sI13
g34
sI14
g36
sI15
g34
sI16
g82
sI17
g35
sI18
g35
ssI18
(dp1207
I0
g36
sI1
g34
sI2
g82
sI3
g35
sI4
g35
sI5
g738
sI6
g34
sI7
g36
sI8
g36
sI9
g34
sI10
g34
sI11
g738
sI12
g34
sI13
g34
sI14
g36
sI15
g34
sI16
g738
sI17
g35
sI18
g35
ssI19
(dp1208
I0
g36
sI1
g34
sI2
g36
sI3
g35
sI4
g35
sI5
g738
sI6
g34
sI7
g36
sI8
g36
sI9
g34
sI10
g34
sI11
g738
sI12
g34
sI13
g34
sI14
g36
sI15
g34
sI16
g738
sI17
g35
sI18
g35
sssbI2
tp1209
sI20
(g1
(g2
g3
Ntp1210
Rp1211
(dp1212
g7
(lp1213
g9
ag10
ag11
ag12
ag13
ag14
ag15
ag16
ag17
ag18
aS'10'
p1214
aS'11'
p1215
aS'12'
p1216
aS'13'
p1217
aS'14'
p1218
aS'15'
p1219
aS'16'
p1220
aS'17'
p1221
aS'18'
p1222
aS'19'
p1223
asg29
g30
sg31
I01
sg32
(dp1224
I0
g35
sI1
g36
sI2
g35
sI3
g34
sI4
g34
sI5
g34
sI6
g36
sI7
g738
sI8
g35
sI9
g35
sI10
g36
sI11
g34
sI12
g738
sI13
g35
sI14
g738
sI15
g36
sI16
g34
sI17
g34
sI18
g34
sI19
g35
ssg37
g1
(g38
g3
Ntp1225
Rp1226
(dp1227
g42
(dp1228
I0
(dp1229
sI1
(dp1230
sI2
(dp1231
sI3
(dp1232
sI4
(dp1233
sI5
(dp1234
sI6
(dp1235
sI7
(dp1236
sI8
(dp1237
sI9
(dp1238
sI10
(dp1239
sI11
(dp1240
sI12
(dp1241
sI13
(dp1242
sI14
(dp1243
sI15
(dp1244
sI16
(dp1245
sI17
(dp1246
sI18
(dp1247
sI19
(dp1248
ssg51
g52
sg53
g52
sg54
(dp1249
I0
(dp1250
I5
(dp1251
sI11
(dp1252
sI12
(dp1253
sI14
(dp1254
sI15
(dp1255
sI17
(dp1256
ssI1
(dp1257
I8
(dp1258
sI9
(dp1259
sI18
(dp1260
sI12
(dp1261
sI13
(dp1262
ssI2
(dp1263
I3
(dp1264
sI4
(dp1265
sI5
(dp1266
sI6
(dp1267
sI12
(dp1268
sI18
(dp1269
ssI3
(dp1270
I2
g1264
sI14
(dp1271
sI6
(dp1272
ssI4
(dp1273
I8
(dp1274
sI2
g1265
sI15
(dp1275
sI6
(dp1276
sI7
(dp1277
ssI5
(dp1278
I0
g1251
sI8
(dp1279
sI2
g1266
sI9
(dp1280
sI7
(dp1281
ssI6
(dp1282
I2
g1267
sI3
g1272
sI4
g1276
sI7
(dp1283
sI11
(dp1284
sI12
(dp1285
sI13
(dp1286
sI14
(dp1287
sI17
(dp1288
sI18
(dp1289
ssI7
(dp1290
I4
g1277
sI5
g1281
sI6
g1283
sI13
(dp1291
sI15
(dp1292
sI16
(dp1293
ssI8
(dp1294
I1
g1258
sI4
g1274
sI5
g1279
sI11
(dp1295
sI12
(dp1296
sI15
(dp1297
ssI9
(dp1298
I16
(dp1299
sI1
g1259
sI11
(dp1300
sI5
g1280
sI17
(dp1301
ssI10
(dp1302
I19
(dp1303
sI17
(dp1304
sI18
(dp1305
sI11
(dp1306
ssI11
(dp1307
I0
g1252
sI6
g1284
sI8
g1295
sI9
g1300
sI10
g1306
sI12
(dp1308
sI14
(dp1309
sI19
(dp1310
ssI12
(dp1311
I0
g1253
sI1
g1261
sI2
g1268
sI6
g1285
sI8
g1296
sI11
g1308
sI13
(dp1312
sI15
(dp1313
sI16
(dp1314
sI19
(dp1315
ssI13
(dp1316
I1
g1262
sI6
g1286
sI7
g1291
sI12
g1312
sI15
(dp1317
sI16
(dp1318
sI18
(dp1319
ssI14
(dp1320
I0
g1254
sI3
g1271
sI6
g1287
sI11
g1309
sI15
(dp1321
sI18
(dp1322
sI19
(dp1323
ssI15
(dp1324
I0
g1255
sI4
g1275
sI7
g1292
sI8
g1297
sI12
g1313
sI13
g1317
sI14
g1321
sI17
(dp1325
sI18
(dp1326
ssI16
(dp1327
I9
g1299
sI12
g1314
sI13
g1318
sI7
g1293
ssI17
(dp1328
I0
g1256
sI6
g1288
sI9
g1301
sI10
g1304
sI15
g1325
sI19
(dp1329
ssI18
(dp1330
I1
g1260
sI2
g1269
sI6
g1289
sI10
g1305
sI13
g1319
sI14
g1322
sI15
g1326
sI19
(dp1331
ssI19
(dp1332
I10
g1303
sI11
g1310
sI12
g1315
sI14
g1323
sI17
g1329
sI18
g1331
sssg37
(dp1333
sg75
g52
sg76
g1249
sbsg77
S'/home/mickael/Documents/projects/examination-scheduling/booth/plots/'
p1334
sg79
(dp1335
I0
(dp1336
I0
g82
sI1
g82
sI2
g82
sI3
g82
sI4
g82
sI5
g82
sI6
g82
sI7
g82
sI8
g82
sI9
g82
sI10
g82
sI11
g82
sI12
g82
sI13
g82
sI14
g82
sI15
g82
sI16
g82
sI17
g82
sI18
g82
sI19
g82
ssI1
(dp1337
I0
g82
sI1
g82
sI2
g82
sI3
g82
sI4
g82
sI5
g82
sI6
g82
sI7
g82
sI8
g82
sI9
g82
sI10
g82
sI11
g82
sI12
g82
sI13
g82
sI14
g82
sI15
g82
sI16
g82
sI17
g82
sI18
g34
sI19
g82
ssI2
(dp1338
I0
g82
sI1
g36
sI2
g82
sI3
g82
sI4
g82
sI5
g82
sI6
g82
sI7
g82
sI8
g82
sI9
g82
sI10
g82
sI11
g82
sI12
g82
sI13
g82
sI14
g82
sI15
g82
sI16
g82
sI17
g82
sI18
g34
sI19
g82
ssI3
(dp1339
I0
g82
sI1
g36
sI2
g82
sI3
g82
sI4
g82
sI5
g82
sI6
g82
sI7
g82
sI8
g82
sI9
g82
sI10
g82
sI11
g82
sI12
g82
sI13
g35
sI14
g82
sI15
g82
sI16
g82
sI17
g82
sI18
g34
sI19
g82
ssI4
(dp1340
I0
g82
sI1
g36
sI2
g82
sI3
g82
sI4
g34
sI5
g82
sI6
g82
sI7
g82
sI8
g82
sI9
g82
sI10
g82
sI11
g82
sI12
g82
sI13
g35
sI14
g82
sI15
g82
sI16
g82
sI17
g82
sI18
g34
sI19
g82
ssI5
(dp1341
I0
g82
sI1
g36
sI2
g82
sI3
g82
sI4
g34
sI5
g82
sI6
g82
sI7
g82
sI8
g82
sI9
g82
sI10
g36
sI11
g82
sI12
g82
sI13
g35
sI14
g82
sI15
g82
sI16
g82
sI17
g82
sI18
g34
sI19
g82
ssI6
(dp1342
I0
g82
sI1
g36
sI2
g82
sI3
g82
sI4
g34
sI5
g82
sI6
g82
sI7
g82
sI8
g35
sI9
g82
sI10
g36
sI11
g82
sI12
g82
sI13
g35
sI14
g82
sI15
g82
sI16
g82
sI17
g82
sI18
g34
sI19
g82
ssI7
(dp1343
I0
g82
sI1
g36
sI2
g82
sI3
g82
sI4
g34
sI5
g82
sI6
g82
sI7
g82
sI8
g35
sI9
g82
sI10
g36
sI11
g82
sI12
g82
sI13
g35
sI14
g82
sI15
g82
sI16
g34
sI17
g82
sI18
g34
sI19
g82
ssI8
(dp1344
I0
g82
sI1
g36
sI2
g82
sI3
g82
sI4
g34
sI5
g82
sI6
g82
sI7
g82
sI8
g35
sI9
g82
sI10
g36
sI11
g82
sI12
g82
sI13
g35
sI14
g82
sI15
g36
sI16
g34
sI17
g82
sI18
g34
sI19
g82
ssI9
(dp1345
I0
g82
sI1
g36
sI2
g82
sI3
g82
sI4
g34
sI5
g82
sI6
g82
sI7
g82
sI8
g35
sI9
g82
sI10
g36
sI11
g34
sI12
g82
sI13
g35
sI14
g82
sI15
g36
sI16
g34
sI17
g82
sI18
g34
sI19
g82
ssI10
(dp1346
I0
g82
sI1
g36
sI2
g82
sI3
g82
sI4
g34
sI5
g82
sI6
g82
sI7
g82
sI8
g35
sI9
g82
sI10
g36
sI11
g34
sI12
g82
sI13
g35
sI14
g82
sI15
g36
sI16
g34
sI17
g34
sI18
g34
sI19
g82
ssI11
(dp1347
I0
g82
sI1
g36
sI2
g82
sI3
g82
sI4
g34
sI5
g82
sI6
g82
sI7
g82
sI8
g35
sI9
g82
sI10
g36
sI11
g34
sI12
g738
sI13
g35
sI14
g82
sI15
g36
sI16
g34
sI17
g34
sI18
g34
sI19
g82
ssI12
(dp1348
I0
g82
sI1
g36
sI2
g82
sI3
g82
sI4
g34
sI5
g82
sI6
g82
sI7
g82
sI8
g35
sI9
g82
sI10
g36
sI11
g34
sI12
g738
sI13
g35
sI14
g82
sI15
g36
sI16
g34
sI17
g34
sI18
g34
sI19
g35
ssI13
(dp1349
I0
g82
sI1
g36
sI2
g82
sI3
g82
sI4
g34
sI5
g34
sI6
g82
sI7
g82
sI8
g35
sI9
g82
sI10
g36
sI11
g34
sI12
g738
sI13
g35
sI14
g82
sI15
g36
sI16
g34
sI17
g34
sI18
g34
sI19
g35
ssI14
(dp1350
I0
g82
sI1
g36
sI2
g82
sI3
g82
sI4
g34
sI5
g34
sI6
g36
sI7
g82
sI8
g35
sI9
g82
sI10
g36
sI11
g34
sI12
g738
sI13
g35
sI14
g82
sI15
g36
sI16
g34
sI17
g34
sI18
g34
sI19
g35
ssI15
(dp1351
I0
g82
sI1
g36
sI2
g82
sI3
g82
sI4
g34
sI5
g34
sI6
g36
sI7
g82
sI8
g35
sI9
g82
sI10
g36
sI11
g34
sI12
g738
sI13
g35
sI14
g738
sI15
g36
sI16
g34
sI17
g34
sI18
g34
sI19
g35
ssI16
(dp1352
I0
g82
sI1
g36
sI2
g82
sI3
g34
sI4
g34
sI5
g34
sI6
g36
sI7
g82
sI8
g35
sI9
g82
sI10
g36
sI11
g34
sI12
g738
sI13
g35
sI14
g738
sI15
g36
sI16
g34
sI17
g34
sI18
g34
sI19
g35
ssI17
(dp1353
I0
g82
sI1
g36
sI2
g82
sI3
g34
sI4
g34
sI5
g34
sI6
g36
sI7
g82
sI8
g35
sI9
g35
sI10
g36
sI11
g34
sI12
g738
sI13
g35
sI14
g738
sI15
g36
sI16
g34
sI17
g34
sI18
g34
sI19
g35
ssI18
(dp1354
I0
g82
sI1
g36
sI2
g82
sI3
g34
sI4
g34
sI5
g34
sI6
g36
sI7
g738
sI8
g35
sI9
g35
sI10
g36
sI11
g34
sI12
g738
sI13
g35
sI14
g738
sI15
g36
sI16
g34
sI17
g34
sI18
g34
sI19
g35
ssI19
(dp1355
I0
g35
sI1
g36
sI2
g82
sI3
g34
sI4
g34
sI5
g34
sI6
g36
sI7
g738
sI8
g35
sI9
g35
sI10
g36
sI11
g34
sI12
g738
sI13
g35
sI14
g738
sI15
g36
sI16
g34
sI17
g34
sI18
g34
sI19
g35
ssI20
(dp1356
I0
g35
sI1
g36
sI2
g35
sI3
g34
sI4
g34
sI5
g34
sI6
g36
sI7
g738
sI8
g35
sI9
g35
sI10
g36
sI11
g34
sI12
g738
sI13
g35
sI14
g738
sI15
g36
sI16
g34
sI17
g34
sI18
g34
sI19
g35
sssbI2
tp1357
s.