(dp0
I10
(ccopy_reg
_reconstructor
p1
(c__main__
ColorGraph
p2
c__builtin__
object
p3
Ntp4
Rp5
(dp6
S'ALL_COLOURS'
p7
(lp8
S'0'
p9
aS'1'
p10
aS'2'
p11
aS'3'
p12
aS'4'
p13
aS'5'
p14
aS'6'
p15
aS'7'
p16
aS'8'
p17
aS'9'
p18
aS'10'
p19
aS'11'
p20
aS'12'
p21
aS'13'
p22
aS'14'
p23
aS'15'
p24
aS'16'
p25
aS'17'
p26
aS'18'
p27
aS'19'
p28
asS'plotname'
p29
S'graphcolouring'
p30
sS'revert'
p31
I01
sS'colours'
p32
(dp33
I0
S'red'
p34
sI1
S'blue'
p35
sI2
g35
sI3
g35
sI4
g34
sI5
g34
sI6
g35
sI7
g35
sI8
S'yellow'
p36
sI9
g36
ssS'graph'
p37
g1
(cnetworkx.classes.graph
Graph
p38
g3
Ntp39
Rp40
(dp41
S'node'
p42
(dp43
I0
(dp44
sI1
(dp45
sI2
(dp46
sI3
(dp47
sI4
(dp48
sI5
(dp49
sI6
(dp50
sI7
(dp51
sI8
(dp52
sI9
(dp53
ssS'node_dict_factory'
p54
c__builtin__
dict
p55
sS'edge_attr_dict_factory'
p56
g55
sS'edge'
p57
(dp58
I0
(dp59
I1
(dp60
sI3
(dp61
ssI1
(dp62
I0
g60
sI9
(dp63
ssI2
(dp64
I8
(dp65
sI9
(dp66
sI4
(dp67
ssI3
(dp68
I0
g61
sI8
(dp69
sI4
(dp70
sI5
(dp71
ssI4
(dp72
I9
(dp73
sI2
g67
sI3
g70
ssI5
(dp74
I8
(dp75
sI9
(dp76
sI3
g71
sI7
(dp77
ssI6
(dp78
sI7
(dp79
I5
g77
ssI8
(dp80
I2
g65
sI3
g69
sI5
g75
ssI9
(dp81
I1
g63
sI2
g66
sI4
g73
sI5
g76
sssg37
(dp82
sS'adjlist_dict_factory'
p83
g55
sS'adj'
p84
g58
sbsS'DIRECTORY'
p85
S'plots/'
p86
sbI1
tp87
sI11
(g1
(g2
g3
Ntp88
Rp89
(dp90
g7
(lp91
g9
ag10
ag11
ag12
ag13
ag14
ag15
ag16
ag17
ag18
aS'10'
p92
aS'11'
p93
aS'12'
p94
aS'13'
p95
aS'14'
p96
aS'15'
p97
aS'16'
p98
aS'17'
p99
aS'18'
p100
aS'19'
p101
asg29
g30
sg31
I01
sg32
(dp102
I0
g34
sI1
g36
sI2
g35
sI3
g35
sI4
g34
sI5
g34
sI6
g35
sI7
g34
sI8
g34
sI9
g36
sI10
g34
ssg37
g1
(g38
g3
Ntp103
Rp104
(dp105
g42
(dp106
I0
(dp107
sI1
(dp108
sI2
(dp109
sI3
(dp110
sI4
(dp111
sI5
(dp112
sI6
(dp113
sI7
(dp114
sI8
(dp115
sI9
(dp116
sI10
(dp117
ssg54
g55
sg56
g55
sg57
(dp118
I0
(dp119
I2
(dp120
sI3
(dp121
ssI1
(dp122
I2
(dp123
sI3
(dp124
sI4
(dp125
sI6
(dp126
ssI2
(dp127
I0
g120
sI1
g123
sI9
(dp128
sI8
(dp129
sI7
(dp130
ssI3
(dp131
I0
g121
sI1
g124
sI5
(dp132
sI8
(dp133
sI7
(dp134
ssI4
(dp135
I1
g125
sI6
(dp136
sI9
(dp137
ssI5
(dp138
I3
g132
ssI6
(dp139
I8
(dp140
sI1
g126
sI10
(dp141
sI4
g136
sI9
(dp142
ssI7
(dp143
I9
(dp144
sI2
g130
sI3
g134
ssI8
(dp145
I2
g129
sI3
g133
sI6
g140
ssI9
(dp146
I2
g128
sI4
g137
sI10
(dp147
sI6
g142
sI7
g144
ssI10
(dp148
I9
g147
sI6
g141
sssg37
(dp149
sg83
g55
sg84
g118
sbsg85
g86
sbI1
tp150
sI12
(g1
(g2
g3
Ntp151
Rp152
(dp153
g7
(lp154
g9
ag10
ag11
ag12
ag13
ag14
ag15
ag16
ag17
ag18
aS'10'
p155
aS'11'
p156
aS'12'
p157
aS'13'
p158
aS'14'
p159
aS'15'
p160
aS'16'
p161
aS'17'
p162
aS'18'
p163
aS'19'
p164
asg29
g30
sg31
I01
sg32
(dp165
I0
g34
sI1
g35
sI2
g34
sI3
g34
sI4
g36
sI5
g35
sI6
g35
sI7
g34
sI8
g35
sI9
g36
sI10
g36
sI11
g35
ssg37
g1
(g38
g3
Ntp166
Rp167
(dp168
g42
(dp169
I0
(dp170
sI1
(dp171
sI2
(dp172
sI3
(dp173
sI4
(dp174
sI5
(dp175
sI6
(dp176
sI7
(dp177
sI8
(dp178
sI9
(dp179
sI10
(dp180
sI11
(dp181
ssg54
g55
sg56
g55
sg57
(dp182
I0
(dp183
I8
(dp184
sI1
(dp185
sI11
(dp186
sI9
(dp187
ssI1
(dp188
I0
g185
sI9
(dp189
sI2
(dp190
sI10
(dp191
sI7
(dp192
ssI2
(dp193
I1
g190
sI10
(dp194
sI11
(dp195
sI4
(dp196
ssI3
(dp197
I8
(dp198
sI9
(dp199
sI11
(dp200
sI4
(dp201
sI6
(dp202
ssI4
(dp203
I8
(dp204
sI11
(dp205
sI2
g196
sI3
g201
ssI5
(dp206
sI6
(dp207
I3
g202
ssI7
(dp208
I8
(dp209
sI1
g192
sI10
(dp210
sI9
(dp211
ssI8
(dp212
I0
g184
sI3
g198
sI4
g204
sI7
g209
ssI9
(dp213
I0
g187
sI1
g189
sI3
g199
sI7
g211
ssI10
(dp214
I1
g191
sI2
g194
sI7
g210
ssI11
(dp215
I0
g186
sI2
g195
sI3
g200
sI4
g205
sssg37
(dp216
sg83
g55
sg84
g182
sbsg85
g86
sbI1
tp217
sI13
(g1
(g2
g3
Ntp218
Rp219
(dp220
g7
(lp221
g9
ag10
ag11
ag12
ag13
ag14
ag15
ag16
ag17
ag18
aS'10'
p222
aS'11'
p223
aS'12'
p224
aS'13'
p225
aS'14'
p226
aS'15'
p227
aS'16'
p228
aS'17'
p229
aS'18'
p230
aS'19'
p231
asg29
g30
sg31
I01
sg32
(dp232
I0
g35
sI1
g34
sI2
g34
sI3
g36
sI4
g35
sI5
g35
sI6
g34
sI7
g34
sI8
g35
sI9
g36
sI10
g35
sI11
g36
sI12
g36
ssg37
g1
(g38
g3
Ntp233
Rp234
(dp235
g42
(dp236
I0
(dp237
sI1
(dp238
sI2
(dp239
sI3
(dp240
sI4
(dp241
sI5
(dp242
sI6
(dp243
sI7
(dp244
sI8
(dp245
sI9
(dp246
sI10
(dp247
sI11
(dp248
sI12
(dp249
ssg54
g55
sg56
g55
sg57
(dp250
I0
(dp251
I1
(dp252
ssI1
(dp253
I0
g252
sI10
(dp254
ssI2
(dp255
I8
(dp256
sI9
(dp257
sI3
(dp258
sI4
(dp259
ssI3
(dp260
I2
g258
sI4
(dp261
sI7
(dp262
ssI4
(dp263
I2
g259
sI3
g261
sI6
(dp264
ssI5
(dp265
I11
(dp266
ssI6
(dp267
I8
(dp268
sI12
(dp269
sI4
g264
ssI7
(dp270
I11
(dp271
sI10
(dp272
sI3
g262
ssI8
(dp273
I2
g256
sI12
(dp274
sI6
g268
ssI9
(dp275
I2
g257
sI10
(dp276
ssI10
(dp277
I1
g254
sI11
(dp278
sI9
g276
sI7
g272
ssI11
(dp279
I10
g278
sI5
g266
sI7
g271
ssI12
(dp280
I8
g274
sI6
g269
sssg37
(dp281
sg83
g55
sg84
g250
sbsg85
g86
sbI1
tp282
sI14
(g1
(g2
g3
Ntp283
Rp284
(dp285
g7
(lp286
g9
ag10
ag11
ag12
ag13
ag14
ag15
ag16
ag17
ag18
aS'10'
p287
aS'11'
p288
aS'12'
p289
aS'13'
p290
aS'14'
p291
aS'15'
p292
aS'16'
p293
aS'17'
p294
aS'18'
p295
aS'19'
p296
asg29
g30
sg31
I01
sg32
(dp297
I0
g35
sI1
g35
sI2
g34
sI3
g36
sI4
g35
sI5
g36
sI6
g36
sI7
g34
sI8
g34
sI9
g35
sI10
g34
sI11
g34
sI12
g36
sI13
g36
ssg37
g1
(g38
g3
Ntp298
Rp299
(dp300
g42
(dp301
I0
(dp302
sI1
(dp303
sI2
(dp304
sI3
(dp305
sI4
(dp306
sI5
(dp307
sI6
(dp308
sI7
(dp309
sI8
(dp310
sI9
(dp311
sI10
(dp312
sI11
(dp313
sI12
(dp314
sI13
(dp315
ssg54
g55
sg56
g55
sg57
(dp316
I0
(dp317
I11
(dp318
sI12
(dp319
sI13
(dp320
sI7
(dp321
ssI1
(dp322
I10
(dp323
sI12
(dp324
sI5
(dp325
sI13
(dp326
ssI2
(dp327
I12
(dp328
sI4
(dp329
sI5
(dp330
ssI3
(dp331
I8
(dp332
sI9
(dp333
sI10
(dp334
ssI4
(dp335
I2
g329
sI5
(dp336
sI6
(dp337
sI8
(dp338
sI10
(dp339
sI13
(dp340
ssI5
(dp341
I1
g325
sI2
g330
sI11
(dp342
sI4
g336
sI9
(dp343
ssI6
(dp344
I9
(dp345
sI10
(dp346
sI11
(dp347
sI4
g337
ssI7
(dp348
I0
g321
sI9
(dp349
sI13
(dp350
ssI8
(dp351
I9
(dp352
sI3
g332
sI4
g338
sI12
(dp353
ssI9
(dp354
I3
g333
sI5
g343
sI6
g345
sI7
g349
sI8
g352
sI10
(dp355
sI11
(dp356
ssI10
(dp357
I1
g323
sI3
g334
sI4
g339
sI6
g346
sI9
g355
ssI11
(dp358
I0
g318
sI9
g356
sI5
g342
sI6
g347
sI13
(dp359
ssI12
(dp360
I0
g319
sI1
g324
sI2
g328
sI8
g353
ssI13
(dp361
I0
g320
sI1
g326
sI11
g359
sI4
g340
sI7
g350
sssg37
(dp362
sg83
g55
sg84
g316
sbsg85
g86
sbI1
tp363
sI15
(g1
(g2
g3
Ntp364
Rp365
(dp366
g7
(lp367
g9
ag10
ag11
ag12
ag13
ag14
ag15
ag16
ag17
ag18
aS'10'
p368
aS'11'
p369
aS'12'
p370
aS'13'
p371
aS'14'
p372
aS'15'
p373
aS'16'
p374
aS'17'
p375
aS'18'
p376
aS'19'
p377
asg29
g30
sg31
I01
sg32
(dp378
I0
g36
sI1
g36
sI2
g36
sI3
g35
sI4
g35
sI5
g36
sI6
g36
sI7
g34
sI8
g35
sI9
g35
sI10
g35
sI11
g34
sI12
g35
sI13
g34
sI14
g34
ssg37
g1
(g38
g3
Ntp379
Rp380
(dp381
g42
(dp382
I0
(dp383
sI1
(dp384
sI2
(dp385
sI3
(dp386
sI4
(dp387
sI5
(dp388
sI6
(dp389
sI7
(dp390
sI8
(dp391
sI9
(dp392
sI10
(dp393
sI11
(dp394
sI12
(dp395
sI13
(dp396
sI14
(dp397
ssg54
g55
sg56
g55
sg57
(dp398
I0
(dp399
I10
(dp400
sI4
(dp401
sI14
(dp402
ssI1
(dp403
I3
(dp404
sI4
(dp405
sI7
(dp406
sI8
(dp407
sI9
(dp408
sI11
(dp409
sI12
(dp410
ssI2
(dp411
I10
(dp412
sI3
(dp413
sI4
(dp414
sI13
(dp415
sI7
(dp416
ssI3
(dp417
I1
g404
sI2
g413
ssI4
(dp418
I0
g401
sI1
g405
sI2
g414
sI5
(dp419
sI6
(dp420
ssI5
(dp421
I4
g419
sI8
(dp422
sI9
(dp423
sI12
(dp424
sI13
(dp425
sI14
(dp426
ssI6
(dp427
I8
(dp428
sI4
g420
sI13
(dp429
sI14
(dp430
ssI7
(dp431
I8
(dp432
sI1
g406
sI2
g416
sI10
(dp433
ssI8
(dp434
I1
g407
sI5
g422
sI6
g428
sI7
g432
sI11
(dp435
sI14
(dp436
ssI9
(dp437
I1
g408
sI5
g423
sI14
(dp438
ssI10
(dp439
I0
g400
sI2
g412
sI11
(dp440
sI7
g433
ssI11
(dp441
I8
g435
sI1
g409
sI10
g440
ssI12
(dp442
I1
g410
sI5
g424
sI14
(dp443
sI13
(dp444
ssI13
(dp445
I2
g415
sI12
g444
sI5
g425
sI6
g429
ssI14
(dp446
I0
g402
sI5
g426
sI6
g430
sI8
g436
sI9
g438
sI12
g443
sssg37
(dp447
sg83
g55
sg84
g398
sbsg85
g86
sbI1
tp448
sI16
(g1
(g2
g3
Ntp449
Rp450
(dp451
g7
(lp452
g9
ag10
ag11
ag12
ag13
ag14
ag15
ag16
ag17
ag18
aS'10'
p453
aS'11'
p454
aS'12'
p455
aS'13'
p456
aS'14'
p457
aS'15'
p458
aS'16'
p459
aS'17'
p460
aS'18'
p461
aS'19'
p462
asg29
g30
sg31
I01
sg32
(dp463
I0
g34
sI1
g34
sI2
g34
sI3
g36
sI4
g34
sI5
g35
sI6
g36
sI7
g35
sI8
S'purple'
p464
sI9
g36
sI10
g35
sI11
g35
sI12
g34
sI13
g35
sI14
g35
sI15
g36
ssg37
g1
(g38
g3
Ntp465
Rp466
(dp467
g42
(dp468
I0
(dp469
sI1
(dp470
sI2
(dp471
sI3
(dp472
sI4
(dp473
sI5
(dp474
sI6
(dp475
sI7
(dp476
sI8
(dp477
sI9
(dp478
sI10
(dp479
sI11
(dp480
sI12
(dp481
sI13
(dp482
sI14
(dp483
sI15
(dp484
ssg54
g55
sg56
g55
sg57
(dp485
I0
(dp486
I8
(dp487
sI11
(dp488
sI3
(dp489
sI14
(dp490
sI7
(dp491
ssI1
(dp492
I3
(dp493
sI5
(dp494
sI7
(dp495
sI8
(dp496
sI9
(dp497
sI11
(dp498
sI15
(dp499
ssI2
(dp500
I3
(dp501
sI14
(dp502
sI6
(dp503
ssI3
(dp504
I0
g489
sI1
g493
sI2
g501
sI5
(dp505
sI8
(dp506
sI11
(dp507
sI13
(dp508
ssI4
(dp509
I11
(dp510
sI13
(dp511
sI15
(dp512
ssI5
(dp513
I8
(dp514
sI1
g494
sI3
g505
sI12
(dp515
sI9
(dp516
ssI6
(dp517
I2
g503
sI14
(dp518
ssI7
(dp519
I0
g491
sI1
g495
sI8
(dp520
sI9
(dp521
sI12
(dp522
sI15
(dp523
ssI8
(dp524
I0
g487
sI1
g496
sI3
g506
sI5
g514
sI7
g520
sI9
(dp525
sI10
(dp526
sI11
(dp527
ssI9
(dp528
I8
g525
sI1
g497
sI5
g516
sI7
g521
ssI10
(dp529
I8
g526
sI12
(dp530
sI15
(dp531
ssI11
(dp532
I0
g488
sI1
g498
sI3
g507
sI4
g510
sI8
g527
sI15
(dp533
ssI12
(dp534
I10
g530
sI5
g515
sI7
g522
ssI13
(dp535
I3
g508
sI4
g511
sI15
(dp536
ssI14
(dp537
I0
g490
sI2
g502
sI6
g518
ssI15
(dp538
I1
g499
sI4
g512
sI7
g523
sI10
g531
sI11
g533
sI13
g536
sssg37
(dp539
sg83
g55
sg84
g485
sbsg85
g86
sbI1
tp540
sI17
(g1
(g2
g3
Ntp541
Rp542
(dp543
g7
(lp544
g9
ag10
ag11
ag12
ag13
ag14
ag15
ag16
ag17
ag18
aS'10'
p545
aS'11'
p546
aS'12'
p547
aS'13'
p548
aS'14'
p549
aS'15'
p550
aS'16'
p551
aS'17'
p552
aS'18'
p553
aS'19'
p554
asg29
g30
sg31
I01
sg32
(dp555
I0
g34
sI1
g35
sI2
g35
sI3
g464
sI4
g36
sI5
g34
sI6
g35
sI7
g35
sI8
g35
sI9
g464
sI10
g35
sI11
g34
sI12
g34
sI13
g36
sI14
g35
sI15
g36
sI16
g36
ssg37
g1
(g38
g3
Ntp556
Rp557
(dp558
g42
(dp559
I0
(dp560
sI1
(dp561
sI2
(dp562
sI3
(dp563
sI4
(dp564
sI5
(dp565
sI6
(dp566
sI7
(dp567
sI8
(dp568
sI9
(dp569
sI10
(dp570
sI11
(dp571
sI12
(dp572
sI13
(dp573
sI14
(dp574
sI15
(dp575
sI16
(dp576
ssg54
g55
sg56
g55
sg57
(dp577
I0
(dp578
I8
(dp579
sI16
(dp580
sI10
(dp581
sI6
(dp582
sI7
(dp583
ssI1
(dp584
I16
(dp585
sI11
(dp586
sI12
(dp587
sI13
(dp588
sI15
(dp589
ssI2
(dp590
I9
(dp591
sI4
(dp592
ssI3
(dp593
I8
(dp594
sI12
(dp595
sI11
(dp596
sI4
(dp597
ssI4
(dp598
I2
g592
sI3
g597
sI5
(dp599
sI6
(dp600
sI9
(dp601
sI11
(dp602
ssI5
(dp603
I16
(dp604
sI4
g599
sI13
(dp605
sI14
(dp606
sI15
(dp607
ssI6
(dp608
I0
g582
sI4
g600
sI9
(dp609
sI12
(dp610
sI13
(dp611
sI15
(dp612
sI16
(dp613
ssI7
(dp614
I0
g583
sI13
(dp615
sI15
(dp616
ssI8
(dp617
I0
g579
sI9
(dp618
sI3
g594
sI16
(dp619
sI15
(dp620
ssI9
(dp621
I2
g591
sI4
g601
sI6
g609
sI8
g618
sI10
(dp622
sI12
(dp623
sI13
(dp624
sI15
(dp625
ssI10
(dp626
I0
g581
sI9
g622
sI13
(dp627
ssI11
(dp628
I1
g586
sI3
g596
sI4
g602
sI14
(dp629
sI15
(dp630
sI16
(dp631
ssI12
(dp632
I1
g587
sI3
g595
sI6
g610
sI9
g623
sI13
(dp633
sI14
(dp634
ssI13
(dp635
I1
g588
sI5
g605
sI6
g611
sI7
g615
sI9
g624
sI10
g627
sI12
g633
ssI14
(dp636
I11
g629
sI12
g634
sI5
g606
ssI15
(dp637
I1
g589
sI5
g607
sI6
g612
sI7
g616
sI8
g620
sI9
g625
sI11
g630
ssI16
(dp638
I0
g580
sI1
g585
sI5
g604
sI6
g613
sI8
g619
sI11
g631
sssg37
(dp639
sg83
g55
sg84
g577
sbsg85
g86
sbI1
tp640
sI18
(g1
(g2
g3
Ntp641
Rp642
(dp643
g7
(lp644
g9
ag10
ag11
ag12
ag13
ag14
ag15
ag16
ag17
ag18
aS'10'
p645
aS'11'
p646
aS'12'
p647
aS'13'
p648
aS'14'
p649
aS'15'
p650
aS'16'
p651
aS'17'
p652
aS'18'
p653
aS'19'
p654
asg29
g30
sg31
I01
sg32
(dp655
I0
g34
sI1
g35
sI2
g34
sI3
g36
sI4
g35
sI5
g35
sI6
g36
sI7
g35
sI8
g36
sI9
g34
sI10
g35
sI11
g35
sI12
g36
sI13
g34
sI14
g35
sI15
g34
sI16
g35
sI17
g34
ssg37
g1
(g38
g3
Ntp656
Rp657
(dp658
g42
(dp659
I0
(dp660
sI1
(dp661
sI2
(dp662
sI3
(dp663
sI4
(dp664
sI5
(dp665
sI6
(dp666
sI7
(dp667
sI8
(dp668
sI9
(dp669
sI10
(dp670
sI11
(dp671
sI12
(dp672
sI13
(dp673
sI14
(dp674
sI15
(dp675
sI16
(dp676
sI17
(dp677
ssg54
g55
sg56
g55
sg57
(dp678
I0
(dp679
I16
(dp680
sI10
(dp681
sI4
(dp682
sI5
(dp683
sI6
(dp684
ssI1
(dp685
I8
(dp686
sI9
(dp687
ssI2
(dp688
I11
(dp689
sI12
(dp690
sI3
(dp691
sI4
(dp692
sI16
(dp693
ssI3
(dp694
I2
g691
sI11
(dp695
sI13
(dp696
sI14
(dp697
sI7
(dp698
ssI4
(dp699
I0
g682
sI8
(dp700
sI2
g692
sI15
(dp701
ssI5
(dp702
I0
g683
sI17
(dp703
sI15
(dp704
ssI6
(dp705
I0
g684
sI9
(dp706
sI10
(dp707
sI17
(dp708
ssI7
(dp709
I8
(dp710
sI3
g698
sI12
(dp711
sI15
(dp712
ssI8
(dp713
I1
g686
sI13
(dp714
sI4
g700
sI9
(dp715
sI7
g710
ssI9
(dp716
I1
g687
sI6
g706
sI8
g715
sI11
(dp717
sI14
(dp718
sI16
(dp719
ssI10
(dp720
I0
g681
sI12
(dp721
sI6
g707
ssI11
(dp722
I9
g717
sI2
g689
sI3
g695
ssI12
(dp723
I2
g690
sI7
g711
sI10
g721
sI13
(dp724
sI15
(dp725
sI16
(dp726
ssI13
(dp727
I8
g714
sI16
(dp728
sI3
g696
sI12
g724
ssI14
(dp729
I9
g718
sI3
g697
ssI15
(dp730
I12
g725
sI4
g701
sI5
g704
sI7
g712
ssI16
(dp731
I0
g680
sI2
g693
sI9
g719
sI12
g726
sI13
g728
sI17
(dp732
ssI17
(dp733
I16
g732
sI5
g703
sI6
g708
sssg37
(dp734
sg83
g55
sg84
g678
sbsg85
g86
sbI1
tp735
sI19
(g1
(g2
g3
Ntp736
Rp737
(dp738
g7
(lp739
g9
ag10
ag11
ag12
ag13
ag14
ag15
ag16
ag17
ag18
aS'10'
p740
aS'11'
p741
aS'12'
p742
aS'13'
p743
aS'14'
p744
aS'15'
p745
aS'16'
p746
aS'17'
p747
aS'18'
p748
aS'19'
p749
asg29
g30
sg31
I01
sg32
(dp750
I0
g34
sI1
g34
sI2
g464
sI3
g34
sI4
g34
sI5
g36
sI6
g36
sI7
g36
sI8
g35
sI9
g35
sI10
g36
sI11
g464
sI12
g35
sI13
g34
sI14
g35
sI15
g35
sI16
g34
sI17
g35
sI18
g35
ssg37
g1
(g38
g3
Ntp751
Rp752
(dp753
g42
(dp754
I0
(dp755
sI1
(dp756
sI2
(dp757
sI3
(dp758
sI4
(dp759
sI5
(dp760
sI6
(dp761
sI7
(dp762
sI8
(dp763
sI9
(dp764
sI10
(dp765
sI11
(dp766
sI12
(dp767
sI13
(dp768
sI14
(dp769
sI15
(dp770
sI16
(dp771
sI17
(dp772
sI18
(dp773
ssg54
g55
sg56
g55
sg57
(dp774
I0
(dp775
I8
(dp776
sI17
(dp777
sI18
(dp778
sI12
(dp779
sI14
(dp780
ssI1
(dp781
I18
(dp782
sI12
(dp783
sI14
(dp784
ssI2
(dp785
I4
(dp786
sI6
(dp787
sI7
(dp788
sI9
(dp789
sI16
(dp790
sI17
(dp791
ssI3
(dp792
I5
(dp793
sI6
(dp794
sI7
(dp795
sI8
(dp796
sI10
(dp797
sI17
(dp798
sI18
(dp799
ssI4
(dp800
I2
g786
sI18
(dp801
sI5
(dp802
sI6
(dp803
sI15
(dp804
ssI5
(dp805
I9
(dp806
sI3
g793
sI4
g802
sI14
(dp807
ssI6
(dp808
I18
(dp809
sI2
g787
sI3
g794
sI4
g803
sI13
(dp810
ssI7
(dp811
I2
g788
sI3
g795
sI12
(dp812
sI13
(dp813
sI14
(dp814
sI17
(dp815
sI18
(dp816
ssI8
(dp817
I0
g776
sI11
(dp818
sI10
(dp819
sI3
g796
sI16
(dp820
ssI9
(dp821
I2
g789
sI5
g806
ssI10
(dp822
I8
g819
sI11
(dp823
sI3
g797
sI17
(dp824
ssI11
(dp825
I8
g818
sI10
g823
sI13
(dp826
sI14
(dp827
ssI12
(dp828
I0
g779
sI1
g783
sI13
(dp829
sI7
g812
ssI13
(dp830
I6
g810
sI7
g813
sI11
g826
sI12
g829
sI14
(dp831
sI15
(dp832
ssI14
(dp833
I0
g780
sI1
g784
sI5
g807
sI7
g814
sI11
g827
sI13
g831
ssI15
(dp834
I16
(dp835
sI4
g804
sI13
g832
ssI16
(dp836
I8
g820
sI2
g790
sI15
g835
ssI17
(dp837
I0
g777
sI2
g791
sI3
g798
sI10
g824
sI7
g815
ssI18
(dp838
I0
g778
sI1
g782
sI3
g799
sI4
g801
sI6
g809
sI7
g816
sssg37
(dp839
sg83
g55
sg84
g774
sbsg85
g86
sbI1
tp840
sI20
(g1
(g2
g3
Ntp841
Rp842
(dp843
g7
(lp844
g9
ag10
ag11
ag12
ag13
ag14
ag15
ag16
ag17
ag18
aS'10'
p845
aS'11'
p846
aS'12'
p847
aS'13'
p848
aS'14'
p849
aS'15'
p850
aS'16'
p851
aS'17'
p852
aS'18'
p853
aS'19'
p854
asg29
g30
sg31
I01
sg32
(dp855
I0
g34
sI1
g35
sI2
g34
sI3
g35
sI4
g36
sI5
g35
sI6
g36
sI7
g34
sI8
g34
sI9
g34
sI10
g34
sI11
g35
sI12
g464
sI13
g34
sI14
g464
sI15
g36
sI16
g34
sI17
g36
sI18
g35
sI19
g35
ssg37
g1
(g38
g3
Ntp856
Rp857
(dp858
g42
(dp859
I0
(dp860
sI1
(dp861
sI2
(dp862
sI3
(dp863
sI4
(dp864
sI5
(dp865
sI6
(dp866
sI7
(dp867
sI8
(dp868
sI9
(dp869
sI10
(dp870
sI11
(dp871
sI12
(dp872
sI13
(dp873
sI14
(dp874
sI15
(dp875
sI16
(dp876
sI17
(dp877
sI18
(dp878
sI19
(dp879
ssg54
g55
sg56
g55
sg57
(dp880
I0
(dp881
I1
(dp882
sI18
(dp883
sI11
(dp884
sI12
(dp885
sI14
(dp886
ssI1
(dp887
I0
g882
sI4
(dp888
sI7
(dp889
sI9
(dp890
sI10
(dp891
sI14
(dp892
sI16
(dp893
ssI2
(dp894
I18
(dp895
sI12
(dp896
sI6
(dp897
sI15
(dp898
ssI3
(dp899
I8
(dp900
sI16
(dp901
sI12
(dp902
ssI4
(dp903
I1
g888
sI7
(dp904
sI8
(dp905
sI9
(dp906
sI10
(dp907
sI11
(dp908
sI12
(dp909
sI16
(dp910
sI18
(dp911
ssI5
(dp912
I13
(dp913
sI14
(dp914
ssI6
(dp915
I16
(dp916
sI2
g897
sI11
(dp917
sI13
(dp918
sI14
(dp919
ssI7
(dp920
I1
g889
sI18
(dp921
sI11
(dp922
sI4
g904
sI12
(dp923
ssI8
(dp924
I11
(dp925
sI18
(dp926
sI3
g900
sI4
g905
ssI9
(dp927
I1
g890
sI18
(dp928
sI19
(dp929
sI4
g906
ssI10
(dp930
I1
g891
sI19
(dp931
sI4
g907
sI15
(dp932
ssI11
(dp933
I0
g884
sI4
g908
sI6
g917
sI7
g922
sI8
g925
sI14
(dp934
sI17
(dp935
ssI12
(dp936
I0
g885
sI2
g896
sI3
g902
sI4
g909
sI7
g923
sI13
(dp937
sI15
(dp938
sI18
(dp939
ssI13
(dp940
I17
(dp941
sI19
(dp942
sI12
g937
sI5
g913
sI6
g918
ssI14
(dp943
I0
g886
sI1
g892
sI5
g914
sI6
g919
sI11
g934
sI16
(dp944
sI17
(dp945
sI19
(dp946
ssI15
(dp947
I16
(dp948
sI2
g898
sI18
(dp949
sI12
g938
sI10
g932
ssI16
(dp950
I1
g893
sI3
g901
sI4
g910
sI6
g916
sI14
g944
sI15
g948
sI18
(dp951
ssI17
(dp952
I18
(dp953
sI11
g935
sI13
g941
sI14
g945
ssI18
(dp954
I0
g883
sI2
g895
sI4
g911
sI7
g921
sI8
g926
sI9
g928
sI12
g939
sI15
g949
sI16
g951
sI17
g953
ssI19
(dp955
I9
g929
sI10
g931
sI13
g942
sI14
g946
sssg37
(dp956
sg83
g55
sg84
g880
sbsg85
g86
sbI1
tp957
s.