(dp0
I8
(ccopy_reg
_reconstructor
p1
(c__main__
ColorGraph
p2
c__builtin__
object
p3
Ntp4
Rp5
(dp6
S'ALL_COLOURS'
p7
(lp8
S'0'
p9
aS'1'
p10
aS'2'
p11
aS'3'
p12
aS'4'
p13
aS'5'
p14
aS'6'
p15
aS'7'
p16
aS'8'
p17
aS'9'
p18
aS'10'
p19
aS'11'
p20
aS'12'
p21
aS'13'
p22
aS'14'
p23
aS'15'
p24
aS'16'
p25
aS'17'
p26
aS'18'
p27
aS'19'
p28
asS'plotname'
p29
S'graphcolouring'
p30
sS'revert'
p31
I01
sS'colours'
p32
(dp33
I0
S'yellow'
p34
sI1
S'red'
p35
sI2
S'blue'
p36
sI3
g36
sI4
g34
sI5
g35
sI6
g36
sI7
g35
ssS'graph'
p37
g1
(cnetworkx.classes.graph
Graph
p38
g3
Ntp39
Rp40
(dp41
S'node'
p42
(dp43
I0
(dp44
sI1
(dp45
sI2
(dp46
sI3
(dp47
sI4
(dp48
sI5
(dp49
sI6
(dp50
sI7
(dp51
ssS'node_dict_factory'
p52
c__builtin__
dict
p53
sS'edge_attr_dict_factory'
p54
g53
sS'edge'
p55
(dp56
I0
(dp57
I1
(dp58
sI2
(dp59
sI5
(dp60
sI7
(dp61
ssI1
(dp62
I0
g58
sI2
(dp63
sI3
(dp64
sI4
(dp65
ssI2
(dp66
I0
g59
sI1
g63
sI4
(dp67
sI7
(dp68
ssI3
(dp69
I1
g64
sI4
(dp70
sI5
(dp71
ssI4
(dp72
I1
g65
sI2
g67
sI3
g70
sI5
(dp73
sI6
(dp74
ssI5
(dp75
I0
g60
sI3
g71
sI4
g73
sI6
(dp76
ssI6
(dp77
I4
g74
sI5
g76
sI7
(dp78
ssI7
(dp79
I0
g61
sI2
g68
sI6
g78
sssg37
(dp80
sS'adjlist_dict_factory'
p81
g53
sS'adj'
p82
g56
sbsS'DIRECTORY'
p83
S'/home/roland/Aktuell/Case Studies/examination-scheduling/booth/plots/'
p84
sS'history'
p85
(dp86
I0
(dp87
I0
S'white'
p88
sI1
g88
sI2
g88
sI3
g88
sI4
g88
sI5
g88
sI6
g88
sI7
g88
ssI1
(dp89
I0
g88
sI1
g88
sI2
g88
sI3
g88
sI4
g88
sI5
g88
sI6
g36
sI7
g88
ssI2
(dp90
I0
g88
sI1
g88
sI2
g88
sI3
g88
sI4
g88
sI5
g35
sI6
g36
sI7
g88
ssI3
(dp91
I0
g88
sI1
g88
sI2
g36
sI3
g88
sI4
g88
sI5
g35
sI6
g36
sI7
g88
ssI4
(dp92
I0
g88
sI1
g88
sI2
g36
sI3
g36
sI4
g88
sI5
g35
sI6
g36
sI7
g88
ssI5
(dp93
I0
g88
sI1
g35
sI2
g36
sI3
g36
sI4
g88
sI5
g35
sI6
g36
sI7
g88
ssI6
(dp94
I0
g88
sI1
g35
sI2
g36
sI3
g36
sI4
g88
sI5
g35
sI6
g36
sI7
g35
ssI7
(dp95
I0
g34
sI1
g35
sI2
g36
sI3
g36
sI4
g88
sI5
g35
sI6
g36
sI7
g35
ssI8
(dp96
I0
g34
sI1
g35
sI2
g36
sI3
g36
sI4
g34
sI5
g35
sI6
g36
sI7
g35
sssbI1
tp97
sI9
(g1
(g2
g3
Ntp98
Rp99
(dp100
g7
(lp101
g9
ag10
ag11
ag12
ag13
ag14
ag15
ag16
ag17
ag18
aS'10'
p102
aS'11'
p103
aS'12'
p104
aS'13'
p105
aS'14'
p106
aS'15'
p107
aS'16'
p108
aS'17'
p109
aS'18'
p110
aS'19'
p111
asg29
g30
sg31
I01
sg32
(dp112
I0
g35
sI1
g36
sI2
g36
sI3
g34
sI4
g34
sI5
g35
sI6
g35
sI7
g36
sI8
g36
ssg37
g1
(g38
g3
Ntp113
Rp114
(dp115
g42
(dp116
I0
(dp117
sI1
(dp118
sI2
(dp119
sI3
(dp120
sI4
(dp121
sI5
(dp122
sI6
(dp123
sI7
(dp124
sI8
(dp125
ssg52
g53
sg54
g53
sg55
(dp126
I0
(dp127
I1
(dp128
sI3
(dp129
sI7
(dp130
ssI1
(dp131
I0
g128
sI3
(dp132
sI4
(dp133
ssI2
(dp134
I3
(dp135
sI5
(dp136
ssI3
(dp137
I0
g129
sI1
g132
sI2
g135
sI5
(dp138
sI7
(dp139
ssI4
(dp140
I1
g133
sI5
(dp141
sI6
(dp142
ssI5
(dp143
I2
g136
sI3
g138
sI4
g141
sI7
(dp144
ssI6
(dp145
I8
(dp146
sI4
g142
sI7
(dp147
ssI7
(dp148
I0
g130
sI3
g139
sI5
g144
sI6
g147
ssI8
(dp149
I6
g146
sssg37
(dp150
sg81
g53
sg82
g126
sbsg83
S'/home/roland/Aktuell/Case Studies/examination-scheduling/booth/plots/'
p151
sg85
(dp152
I0
(dp153
I0
g88
sI1
g88
sI2
g88
sI3
g88
sI4
g88
sI5
g88
sI6
g88
sI7
g88
sI8
g88
ssI1
(dp154
I0
g88
sI1
g88
sI2
g36
sI3
g88
sI4
g88
sI5
g88
sI6
g88
sI7
g88
sI8
g88
ssI2
(dp155
I0
g88
sI1
g88
sI2
g36
sI3
g88
sI4
g88
sI5
g88
sI6
g88
sI7
g36
sI8
g88
ssI3
(dp156
I0
g88
sI1
g88
sI2
g36
sI3
g88
sI4
g88
sI5
g88
sI6
g88
sI7
g36
sI8
g36
ssI4
(dp157
I0
g88
sI1
g88
sI2
g36
sI3
g88
sI4
g88
sI5
g35
sI6
g88
sI7
g36
sI8
g36
ssI5
(dp158
I0
g88
sI1
g88
sI2
g36
sI3
g88
sI4
g88
sI5
g35
sI6
g35
sI7
g36
sI8
g36
ssI6
(dp159
I0
g88
sI1
g36
sI2
g36
sI3
g88
sI4
g88
sI5
g35
sI6
g35
sI7
g36
sI8
g36
ssI7
(dp160
I0
g88
sI1
g36
sI2
g36
sI3
g88
sI4
g34
sI5
g35
sI6
g35
sI7
g36
sI8
g36
ssI8
(dp161
I0
g35
sI1
g36
sI2
g36
sI3
g88
sI4
g34
sI5
g35
sI6
g35
sI7
g36
sI8
g36
ssI9
(dp162
I0
g35
sI1
g36
sI2
g36
sI3
g34
sI4
g34
sI5
g35
sI6
g35
sI7
g36
sI8
g36
sssbI1
tp163
sI10
(g1
(g2
g3
Ntp164
Rp165
(dp166
g7
(lp167
g9
ag10
ag11
ag12
ag13
ag14
ag15
ag16
ag17
ag18
aS'10'
p168
aS'11'
p169
aS'12'
p170
aS'13'
p171
aS'14'
p172
aS'15'
p173
aS'16'
p174
aS'17'
p175
aS'18'
p176
aS'19'
p177
asg29
g30
sg31
I01
sg32
(dp178
I0
g35
sI1
g35
sI2
g36
sI3
g35
sI4
g34
sI5
g34
sI6
g35
sI7
g36
sI8
g35
sI9
g36
ssg37
g1
(g38
g3
Ntp179
Rp180
(dp181
g42
(dp182
I0
(dp183
sI1
(dp184
sI2
(dp185
sI3
(dp186
sI4
(dp187
sI5
(dp188
sI6
(dp189
sI7
(dp190
sI8
(dp191
sI9
(dp192
ssg52
g53
sg54
g53
sg55
(dp193
I0
(dp194
I9
(dp195
sI2
(dp196
sI4
(dp197
sI7
(dp198
ssI1
(dp199
I2
(dp200
sI4
(dp201
ssI2
(dp202
I0
g196
sI1
g200
sI4
(dp203
sI5
(dp204
sI8
(dp205
ssI3
(dp206
I5
(dp207
sI7
(dp208
ssI4
(dp209
I0
g197
sI1
g201
sI2
g203
sI6
(dp210
sI8
(dp211
ssI5
(dp212
I8
(dp213
sI2
g204
sI3
g207
sI7
(dp214
ssI6
(dp215
I9
(dp216
sI4
g210
sI7
(dp217
ssI7
(dp218
I0
g198
sI3
g208
sI5
g214
sI6
g217
ssI8
(dp219
I9
(dp220
sI2
g205
sI4
g211
sI5
g213
ssI9
(dp221
I0
g195
sI8
g220
sI6
g216
sssg37
(dp222
sg81
g53
sg82
g193
sbsg83
S'/home/roland/Aktuell/Case Studies/examination-scheduling/booth/plots/'
p223
sg85
(dp224
I0
(dp225
I0
g88
sI1
g88
sI2
g88
sI3
g88
sI4
g88
sI5
g88
sI6
g88
sI7
g88
sI8
g88
sI9
g88
ssI1
(dp226
I0
g88
sI1
g88
sI2
g88
sI3
g88
sI4
g88
sI5
g88
sI6
g88
sI7
g88
sI8
g88
sI9
g36
ssI2
(dp227
I0
g88
sI1
g88
sI2
g88
sI3
g88
sI4
g88
sI5
g88
sI6
g35
sI7
g88
sI8
g88
sI9
g36
ssI3
(dp228
I0
g88
sI1
g88
sI2
g36
sI3
g88
sI4
g88
sI5
g88
sI6
g35
sI7
g88
sI8
g88
sI9
g36
ssI4
(dp229
I0
g88
sI1
g88
sI2
g36
sI3
g88
sI4
g34
sI5
g88
sI6
g35
sI7
g88
sI8
g88
sI9
g36
ssI5
(dp230
I0
g88
sI1
g88
sI2
g36
sI3
g88
sI4
g34
sI5
g88
sI6
g35
sI7
g36
sI8
g88
sI9
g36
ssI6
(dp231
I0
g88
sI1
g88
sI2
g36
sI3
g88
sI4
g34
sI5
g88
sI6
g35
sI7
g36
sI8
g35
sI9
g36
ssI7
(dp232
I0
g35
sI1
g88
sI2
g36
sI3
g88
sI4
g34
sI5
g88
sI6
g35
sI7
g36
sI8
g35
sI9
g36
ssI8
(dp233
I0
g35
sI1
g35
sI2
g36
sI3
g88
sI4
g34
sI5
g88
sI6
g35
sI7
g36
sI8
g35
sI9
g36
ssI9
(dp234
I0
g35
sI1
g35
sI2
g36
sI3
g35
sI4
g34
sI5
g88
sI6
g35
sI7
g36
sI8
g35
sI9
g36
ssI10
(dp235
I0
g35
sI1
g35
sI2
g36
sI3
g35
sI4
g34
sI5
g34
sI6
g35
sI7
g36
sI8
g35
sI9
g36
sssbI1
tp236
sI11
(g1
(g2
g3
Ntp237
Rp238
(dp239
g7
(lp240
g9
ag10
ag11
ag12
ag13
ag14
ag15
ag16
ag17
ag18
aS'10'
p241
aS'11'
p242
aS'12'
p243
aS'13'
p244
aS'14'
p245
aS'15'
p246
aS'16'
p247
aS'17'
p248
aS'18'
p249
aS'19'
p250
asg29
g30
sg31
I01
sg32
(dp251
I0
g36
sI1
g35
sI2
g36
sI3
g36
sI4
g34
sI5
g36
sI6
g34
sI7
g35
sI8
g35
sI9
g34
sI10
g35
ssg37
g1
(g38
g3
Ntp252
Rp253
(dp254
g42
(dp255
I0
(dp256
sI1
(dp257
sI2
(dp258
sI3
(dp259
sI4
(dp260
sI5
(dp261
sI6
(dp262
sI7
(dp263
sI8
(dp264
sI9
(dp265
sI10
(dp266
ssg52
g53
sg54
g53
sg55
(dp267
I0
(dp268
I9
(dp269
sI10
(dp270
sI6
(dp271
ssI1
(dp272
I5
(dp273
ssI2
(dp274
I7
(dp275
ssI3
(dp276
I9
(dp277
ssI4
(dp278
I5
(dp279
sI7
(dp280
ssI5
(dp281
I8
(dp282
sI1
g273
sI10
(dp283
sI4
g279
sI6
(dp284
ssI6
(dp285
I0
g271
sI8
(dp286
sI10
(dp287
sI5
g284
ssI7
(dp288
I9
(dp289
sI2
g275
sI4
g280
ssI8
(dp290
I5
g282
sI6
g286
ssI9
(dp291
I0
g269
sI3
g277
sI7
g289
ssI10
(dp292
I0
g270
sI5
g283
sI6
g287
sssg37
(dp293
sg81
g53
sg82
g267
sbsg83
S'/home/roland/Aktuell/Case Studies/examination-scheduling/booth/plots/'
p294
sg85
(dp295
I0
(dp296
I0
g88
sI1
g88
sI2
g88
sI3
g88
sI4
g88
sI5
g88
sI6
g88
sI7
g88
sI8
g88
sI9
g88
sI10
g88
ssI1
(dp297
I0
g88
sI1
g88
sI2
g88
sI3
g88
sI4
g88
sI5
g36
sI6
g88
sI7
g88
sI8
g88
sI9
g88
sI10
g88
ssI2
(dp298
I0
g88
sI1
g88
sI2
g36
sI3
g88
sI4
g88
sI5
g36
sI6
g88
sI7
g88
sI8
g88
sI9
g88
sI10
g88
ssI3
(dp299
I0
g88
sI1
g88
sI2
g36
sI3
g88
sI4
g88
sI5
g36
sI6
g88
sI7
g88
sI8
g88
sI9
g88
sI10
g35
ssI4
(dp300
I0
g88
sI1
g88
sI2
g36
sI3
g88
sI4
g88
sI5
g36
sI6
g88
sI7
g88
sI8
g35
sI9
g88
sI10
g35
ssI5
(dp301
I0
g36
sI1
g88
sI2
g36
sI3
g88
sI4
g88
sI5
g36
sI6
g88
sI7
g88
sI8
g35
sI9
g88
sI10
g35
ssI6
(dp302
I0
g36
sI1
g88
sI2
g36
sI3
g88
sI4
g88
sI5
g36
sI6
g88
sI7
g35
sI8
g35
sI9
g88
sI10
g35
ssI7
(dp303
I0
g36
sI1
g35
sI2
g36
sI3
g88
sI4
g88
sI5
g36
sI6
g88
sI7
g35
sI8
g35
sI9
g88
sI10
g35
ssI8
(dp304
I0
g36
sI1
g35
sI2
g36
sI3
g88
sI4
g88
sI5
g36
sI6
g88
sI7
g35
sI8
g35
sI9
g34
sI10
g35
ssI9
(dp305
I0
g36
sI1
g35
sI2
g36
sI3
g36
sI4
g88
sI5
g36
sI6
g88
sI7
g35
sI8
g35
sI9
g34
sI10
g35
ssI10
(dp306
I0
g36
sI1
g35
sI2
g36
sI3
g36
sI4
g34
sI5
g36
sI6
g88
sI7
g35
sI8
g35
sI9
g34
sI10
g35
ssI11
(dp307
I0
g36
sI1
g35
sI2
g36
sI3
g36
sI4
g34
sI5
g36
sI6
g34
sI7
g35
sI8
g35
sI9
g34
sI10
g35
sssbI1
tp308
sI12
(g1
(g2
g3
Ntp309
Rp310
(dp311
g7
(lp312
g9
ag10
ag11
ag12
ag13
ag14
ag15
ag16
ag17
ag18
aS'10'
p313
aS'11'
p314
aS'12'
p315
aS'13'
p316
aS'14'
p317
aS'15'
p318
aS'16'
p319
aS'17'
p320
aS'18'
p321
aS'19'
p322
asg29
g30
sg31
I01
sg32
(dp323
I0
g35
sI1
g35
sI2
g36
sI3
g34
sI4
g36
sI5
g36
sI6
g35
sI7
g36
sI8
g36
sI9
g34
sI10
g34
sI11
g35
ssg37
g1
(g38
g3
Ntp324
Rp325
(dp326
g42
(dp327
I0
(dp328
sI1
(dp329
sI2
(dp330
sI3
(dp331
sI4
(dp332
sI5
(dp333
sI6
(dp334
sI7
(dp335
sI8
(dp336
sI9
(dp337
sI10
(dp338
sI11
(dp339
ssg52
g53
sg54
g53
sg55
(dp340
I0
(dp341
I9
(dp342
sI4
(dp343
ssI1
(dp344
I3
(dp345
sI4
(dp346
sI5
(dp347
sI7
(dp348
ssI2
(dp349
I11
(dp350
ssI3
(dp351
I1
g345
sI4
(dp352
sI5
(dp353
sI6
(dp354
sI7
(dp355
ssI4
(dp356
I0
g343
sI1
g346
sI3
g352
sI11
(dp357
ssI5
(dp358
I1
g347
sI3
g353
sI6
(dp359
ssI6
(dp360
I8
(dp361
sI10
(dp362
sI3
g354
sI5
g359
ssI7
(dp363
I1
g348
sI10
(dp364
sI3
g355
sI9
(dp365
ssI8
(dp366
I9
(dp367
sI10
(dp368
sI6
g361
ssI9
(dp369
I0
g342
sI8
g367
sI7
g365
ssI10
(dp370
I8
g368
sI6
g362
sI7
g364
ssI11
(dp371
I2
g350
sI4
g357
sssg37
(dp372
sg81
g53
sg82
g340
sbsg83
S'/home/roland/Aktuell/Case Studies/examination-scheduling/booth/plots/'
p373
sg85
(dp374
I0
(dp375
I0
g88
sI1
g88
sI2
g88
sI3
g88
sI4
g88
sI5
g88
sI6
g88
sI7
g88
sI8
g88
sI9
g88
sI10
g88
sI11
g88
ssI1
(dp376
I0
g88
sI1
g88
sI2
g88
sI3
g88
sI4
g36
sI5
g88
sI6
g88
sI7
g88
sI8
g88
sI9
g88
sI10
g88
sI11
g88
ssI2
(dp377
I0
g88
sI1
g88
sI2
g88
sI3
g88
sI4
g36
sI5
g88
sI6
g88
sI7
g36
sI8
g88
sI9
g88
sI10
g88
sI11
g88
ssI3
(dp378
I0
g88
sI1
g88
sI2
g36
sI3
g88
sI4
g36
sI5
g88
sI6
g88
sI7
g36
sI8
g88
sI9
g88
sI10
g88
sI11
g88
ssI4
(dp379
I0
g88
sI1
g88
sI2
g36
sI3
g88
sI4
g36
sI5
g36
sI6
g88
sI7
g36
sI8
g88
sI9
g88
sI10
g88
sI11
g88
ssI5
(dp380
I0
g88
sI1
g35
sI2
g36
sI3
g88
sI4
g36
sI5
g36
sI6
g88
sI7
g36
sI8
g88
sI9
g88
sI10
g88
sI11
g88
ssI6
(dp381
I0
g88
sI1
g35
sI2
g36
sI3
g34
sI4
g36
sI5
g36
sI6
g88
sI7
g36
sI8
g88
sI9
g88
sI10
g88
sI11
g88
ssI7
(dp382
I0
g35
sI1
g35
sI2
g36
sI3
g34
sI4
g36
sI5
g36
sI6
g88
sI7
g36
sI8
g88
sI9
g88
sI10
g88
sI11
g88
ssI8
(dp383
I0
g35
sI1
g35
sI2
g36
sI3
g34
sI4
g36
sI5
g36
sI6
g35
sI7
g36
sI8
g88
sI9
g88
sI10
g88
sI11
g88
ssI9
(dp384
I0
g35
sI1
g35
sI2
g36
sI3
g34
sI4
g36
sI5
g36
sI6
g35
sI7
g36
sI8
g88
sI9
g88
sI10
g88
sI11
g35
ssI10
(dp385
I0
g35
sI1
g35
sI2
g36
sI3
g34
sI4
g36
sI5
g36
sI6
g35
sI7
g36
sI8
g36
sI9
g88
sI10
g88
sI11
g35
ssI11
(dp386
I0
g35
sI1
g35
sI2
g36
sI3
g34
sI4
g36
sI5
g36
sI6
g35
sI7
g36
sI8
g36
sI9
g88
sI10
g34
sI11
g35
ssI12
(dp387
I0
g35
sI1
g35
sI2
g36
sI3
g34
sI4
g36
sI5
g36
sI6
g35
sI7
g36
sI8
g36
sI9
g34
sI10
g34
sI11
g35
sssbI1
tp388
sI13
(g1
(g2
g3
Ntp389
Rp390
(dp391
g7
(lp392
g9
ag10
ag11
ag12
ag13
ag14
ag15
ag16
ag17
ag18
aS'10'
p393
aS'11'
p394
aS'12'
p395
aS'13'
p396
aS'14'
p397
aS'15'
p398
aS'16'
p399
aS'17'
p400
aS'18'
p401
aS'19'
p402
asg29
g30
sg31
I01
sg32
(dp403
I0
g35
sI1
g34
sI2
g34
sI3
g35
sI4
g35
sI5
g36
sI6
g36
sI7
g36
sI8
g36
sI9
g36
sI10
g36
sI11
g35
sI12
g35
ssg37
g1
(g38
g3
Ntp404
Rp405
(dp406
g42
(dp407
I0
(dp408
sI1
(dp409
sI2
(dp410
sI3
(dp411
sI4
(dp412
sI5
(dp413
sI6
(dp414
sI7
(dp415
sI8
(dp416
sI9
(dp417
sI10
(dp418
sI11
(dp419
sI12
(dp420
ssg52
g53
sg54
g53
sg55
(dp421
I0
(dp422
I8
(dp423
sI1
(dp424
sI2
(dp425
sI10
(dp426
sI7
(dp427
ssI1
(dp428
I0
g424
sI10
(dp429
sI5
(dp430
ssI2
(dp431
I0
g425
sI5
(dp432
sI6
(dp433
sI7
(dp434
sI8
(dp435
sI12
(dp436
ssI3
(dp437
I10
(dp438
sI5
(dp439
sI6
(dp440
ssI4
(dp441
I10
(dp442
sI6
(dp443
sI7
(dp444
ssI5
(dp445
I11
(dp446
sI1
g430
sI2
g432
sI3
g439
ssI6
(dp447
I12
(dp448
sI2
g433
sI3
g440
sI4
g443
ssI7
(dp449
I0
g427
sI12
(dp450
sI2
g434
sI4
g444
ssI8
(dp451
I0
g423
sI2
g435
sI11
(dp452
sI12
(dp453
ssI9
(dp454
sI10
(dp455
I0
g426
sI1
g429
sI3
g438
sI4
g442
ssI11
(dp456
I8
g452
sI5
g446
ssI12
(dp457
I8
g453
sI2
g436
sI6
g448
sI7
g450
sssg37
(dp458
sg81
g53
sg82
g421
sbsg83
S'/home/roland/Aktuell/Case Studies/examination-scheduling/booth/plots/'
p459
sg85
(dp460
I0
(dp461
I0
g88
sI1
g88
sI2
g88
sI3
g88
sI4
g88
sI5
g88
sI6
g88
sI7
g88
sI8
g88
sI9
g88
sI10
g88
sI11
g88
sI12
g88
ssI1
(dp462
I0
g88
sI1
g88
sI2
g88
sI3
g88
sI4
g88
sI5
g88
sI6
g88
sI7
g88
sI8
g88
sI9
g36
sI10
g88
sI11
g88
sI12
g88
ssI2
(dp463
I0
g88
sI1
g88
sI2
g88
sI3
g88
sI4
g88
sI5
g88
sI6
g88
sI7
g88
sI8
g36
sI9
g36
sI10
g88
sI11
g88
sI12
g88
ssI3
(dp464
I0
g88
sI1
g88
sI2
g88
sI3
g88
sI4
g88
sI5
g88
sI6
g88
sI7
g36
sI8
g36
sI9
g36
sI10
g88
sI11
g88
sI12
g88
ssI4
(dp465
I0
g88
sI1
g88
sI2
g88
sI3
g88
sI4
g88
sI5
g88
sI6
g88
sI7
g36
sI8
g36
sI9
g36
sI10
g88
sI11
g35
sI12
g88
ssI5
(dp466
I0
g88
sI1
g88
sI2
g88
sI3
g88
sI4
g88
sI5
g88
sI6
g88
sI7
g36
sI8
g36
sI9
g36
sI10
g88
sI11
g35
sI12
g35
ssI6
(dp467
I0
g88
sI1
g88
sI2
g88
sI3
g88
sI4
g88
sI5
g88
sI6
g36
sI7
g36
sI8
g36
sI9
g36
sI10
g88
sI11
g35
sI12
g35
ssI7
(dp468
I0
g88
sI1
g88
sI2
g88
sI3
g88
sI4
g88
sI5
g36
sI6
g36
sI7
g36
sI8
g36
sI9
g36
sI10
g88
sI11
g35
sI12
g35
ssI8
(dp469
I0
g88
sI1
g88
sI2
g88
sI3
g35
sI4
g88
sI5
g36
sI6
g36
sI7
g36
sI8
g36
sI9
g36
sI10
g88
sI11
g35
sI12
g35
ssI9
(dp470
I0
g35
sI1
g88
sI2
g88
sI3
g35
sI4
g88
sI5
g36
sI6
g36
sI7
g36
sI8
g36
sI9
g36
sI10
g88
sI11
g35
sI12
g35
ssI10
(dp471
I0
g35
sI1
g34
sI2
g88
sI3
g35
sI4
g88
sI5
g36
sI6
g36
sI7
g36
sI8
g36
sI9
g36
sI10
g88
sI11
g35
sI12
g35
ssI11
(dp472
I0
g35
sI1
g34
sI2
g34
sI3
g35
sI4
g88
sI5
g36
sI6
g36
sI7
g36
sI8
g36
sI9
g36
sI10
g88
sI11
g35
sI12
g35
ssI12
(dp473
I0
g35
sI1
g34
sI2
g34
sI3
g35
sI4
g35
sI5
g36
sI6
g36
sI7
g36
sI8
g36
sI9
g36
sI10
g88
sI11
g35
sI12
g35
ssI13
(dp474
I0
g35
sI1
g34
sI2
g34
sI3
g35
sI4
g35
sI5
g36
sI6
g36
sI7
g36
sI8
g36
sI9
g36
sI10
g36
sI11
g35
sI12
g35
sssbI1
tp475
sI14
(g1
(g2
g3
Ntp476
Rp477
(dp478
g7
(lp479
g9
ag10
ag11
ag12
ag13
ag14
ag15
ag16
ag17
ag18
aS'10'
p480
aS'11'
p481
aS'12'
p482
aS'13'
p483
aS'14'
p484
aS'15'
p485
aS'16'
p486
aS'17'
p487
aS'18'
p488
aS'19'
p489
asg29
g30
sg31
I01
sg32
(dp490
I0
g35
sI1
g35
sI2
g34
sI3
g35
sI4
g36
sI5
g34
sI6
g36
sI7
g36
sI8
g36
sI9
g34
sI10
g36
sI11
g36
sI12
g35
sI13
g34
ssg37
g1
(g38
g3
Ntp491
Rp492
(dp493
g42
(dp494
I0
(dp495
sI1
(dp496
sI2
(dp497
sI3
(dp498
sI4
(dp499
sI5
(dp500
sI6
(dp501
sI7
(dp502
sI8
(dp503
sI9
(dp504
sI10
(dp505
sI11
(dp506
sI12
(dp507
sI13
(dp508
ssg52
g53
sg54
g53
sg55
(dp509
I0
(dp510
I7
(dp511
sI8
(dp512
sI9
(dp513
sI10
(dp514
sI11
(dp515
sI13
(dp516
ssI1
(dp517
I2
(dp518
sI4
(dp519
sI5
(dp520
sI6
(dp521
ssI2
(dp522
I1
g518
sI4
(dp523
sI6
(dp524
sI7
(dp525
sI8
(dp526
sI10
(dp527
sI11
(dp528
ssI3
(dp529
I8
(dp530
sI10
(dp531
sI4
(dp532
sI5
(dp533
sI13
(dp534
ssI4
(dp535
I1
g519
sI2
g523
sI3
g532
sI13
(dp536
ssI5
(dp537
I11
(dp538
sI1
g520
sI3
g533
sI6
(dp539
ssI6
(dp540
I1
g521
sI2
g524
sI5
g539
ssI7
(dp541
I0
g511
sI2
g525
ssI8
(dp542
I0
g512
sI9
(dp543
sI2
g526
sI3
g530
ssI9
(dp544
I0
g513
sI8
g543
sI12
(dp545
ssI10
(dp546
I0
g514
sI2
g527
sI3
g531
sI12
(dp547
sI13
(dp548
ssI11
(dp549
I0
g515
sI2
g528
sI12
(dp550
sI5
g538
ssI12
(dp551
I9
g545
sI10
g547
sI11
g550
ssI13
(dp552
I0
g516
sI10
g548
sI3
g534
sI4
g536
sssg37
(dp553
sg81
g53
sg82
g509
sbsg83
S'/home/roland/Aktuell/Case Studies/examination-scheduling/booth/plots/'
p554
sg85
(dp555
I0
(dp556
I0
g88
sI1
g88
sI2
g88
sI3
g88
sI4
g88
sI5
g88
sI6
g88
sI7
g88
sI8
g88
sI9
g88
sI10
g88
sI11
g88
sI12
g88
sI13
g88
ssI1
(dp557
I0
g88
sI1
g88
sI2
g88
sI3
g88
sI4
g88
sI5
g88
sI6
g88
sI7
g88
sI8
g88
sI9
g88
sI10
g36
sI11
g88
sI12
g88
sI13
g88
ssI2
(dp558
I0
g88
sI1
g88
sI2
g88
sI3
g35
sI4
g88
sI5
g88
sI6
g88
sI7
g88
sI8
g88
sI9
g88
sI10
g36
sI11
g88
sI12
g88
sI13
g88
ssI3
(dp559
I0
g88
sI1
g88
sI2
g88
sI3
g35
sI4
g88
sI5
g88
sI6
g88
sI7
g88
sI8
g88
sI9
g88
sI10
g36
sI11
g88
sI12
g35
sI13
g88
ssI4
(dp560
I0
g88
sI1
g88
sI2
g88
sI3
g35
sI4
g88
sI5
g88
sI6
g88
sI7
g88
sI8
g36
sI9
g88
sI10
g36
sI11
g88
sI12
g35
sI13
g88
ssI5
(dp561
I0
g88
sI1
g88
sI2
g88
sI3
g35
sI4
g36
sI5
g88
sI6
g88
sI7
g88
sI8
g36
sI9
g88
sI10
g36
sI11
g88
sI12
g35
sI13
g88
ssI6
(dp562
I0
g88
sI1
g88
sI2
g88
sI3
g35
sI4
g36
sI5
g88
sI6
g88
sI7
g36
sI8
g36
sI9
g88
sI10
g36
sI11
g88
sI12
g35
sI13
g88
ssI7
(dp563
I0
g88
sI1
g88
sI2
g88
sI3
g35
sI4
g36
sI5
g88
sI6
g88
sI7
g36
sI8
g36
sI9
g34
sI10
g36
sI11
g88
sI12
g35
sI13
g88
ssI8
(dp564
I0
g88
sI1
g88
sI2
g88
sI3
g35
sI4
g36
sI5
g88
sI6
g36
sI7
g36
sI8
g36
sI9
g34
sI10
g36
sI11
g88
sI12
g35
sI13
g88
ssI9
(dp565
I0
g88
sI1
g35
sI2
g88
sI3
g35
sI4
g36
sI5
g88
sI6
g36
sI7
g36
sI8
g36
sI9
g34
sI10
g36
sI11
g88
sI12
g35
sI13
g88
ssI10
(dp566
I0
g88
sI1
g35
sI2
g88
sI3
g35
sI4
g36
sI5
g34
sI6
g36
sI7
g36
sI8
g36
sI9
g34
sI10
g36
sI11
g88
sI12
g35
sI13
g88
ssI11
(dp567
I0
g88
sI1
g35
sI2
g88
sI3
g35
sI4
g36
sI5
g34
sI6
g36
sI7
g36
sI8
g36
sI9
g34
sI10
g36
sI11
g36
sI12
g35
sI13
g88
ssI12
(dp568
I0
g88
sI1
g35
sI2
g88
sI3
g35
sI4
g36
sI5
g34
sI6
g36
sI7
g36
sI8
g36
sI9
g34
sI10
g36
sI11
g36
sI12
g35
sI13
g34
ssI13
(dp569
I0
g35
sI1
g35
sI2
g88
sI3
g35
sI4
g36
sI5
g34
sI6
g36
sI7
g36
sI8
g36
sI9
g34
sI10
g36
sI11
g36
sI12
g35
sI13
g34
ssI14
(dp570
I0
g35
sI1
g35
sI2
g34
sI3
g35
sI4
g36
sI5
g34
sI6
g36
sI7
g36
sI8
g36
sI9
g34
sI10
g36
sI11
g36
sI12
g35
sI13
g34
sssbI1
tp571
sI15
(g1
(g2
g3
Ntp572
Rp573
(dp574
g7
(lp575
g9
ag10
ag11
ag12
ag13
ag14
ag15
ag16
ag17
ag18
aS'10'
p576
aS'11'
p577
aS'12'
p578
aS'13'
p579
aS'14'
p580
aS'15'
p581
aS'16'
p582
aS'17'
p583
aS'18'
p584
aS'19'
p585
asg29
g30
sg31
I01
sg32
(dp586
I0
g35
sI1
g34
sI2
g34
sI3
g35
sI4
g36
sI5
g36
sI6
g35
sI7
g36
sI8
g34
sI9
g34
sI10
g36
sI11
g35
sI12
g36
sI13
g36
sI14
g34
ssg37
g1
(g38
g3
Ntp587
Rp588
(dp589
g42
(dp590
I0
(dp591
sI1
(dp592
sI2
(dp593
sI3
(dp594
sI4
(dp595
sI5
(dp596
sI6
(dp597
sI7
(dp598
sI8
(dp599
sI9
(dp600
sI10
(dp601
sI11
(dp602
sI12
(dp603
sI13
(dp604
sI14
(dp605
ssg52
g53
sg54
g53
sg55
(dp606
I0
(dp607
I8
(dp608
sI5
(dp609
sI14
(dp610
sI13
(dp611
ssI1
(dp612
I3
(dp613
sI4
(dp614
sI5
(dp615
sI7
(dp616
sI12
(dp617
sI13
(dp618
ssI2
(dp619
I10
(dp620
sI4
(dp621
sI5
(dp622
sI6
(dp623
sI13
(dp624
ssI3
(dp625
I1
g613
sI4
(dp626
sI8
(dp627
sI9
(dp628
sI12
(dp629
sI13
(dp630
sI14
(dp631
ssI4
(dp632
I11
(dp633
sI1
g614
sI2
g621
sI3
g626
ssI5
(dp634
I0
g609
sI1
g615
sI2
g622
sI6
(dp635
sI8
(dp636
sI9
(dp637
ssI6
(dp638
I2
g623
sI5
g635
sI8
(dp639
sI9
(dp640
sI12
(dp641
sI14
(dp642
ssI7
(dp643
I8
(dp644
sI1
g616
ssI8
(dp645
I0
g608
sI3
g627
sI5
g636
sI6
g639
sI7
g644
sI10
(dp646
ssI9
(dp647
I10
(dp648
sI3
g628
sI5
g637
sI6
g640
sI13
(dp649
ssI10
(dp650
I8
g646
sI9
g648
sI2
g620
sI14
(dp651
ssI11
(dp652
I4
g633
sI13
(dp653
ssI12
(dp654
I1
g617
sI3
g629
sI6
g641
ssI13
(dp655
I0
g611
sI1
g618
sI2
g624
sI3
g630
sI9
g649
sI11
g653
ssI14
(dp656
I0
g610
sI10
g651
sI3
g631
sI6
g642
sssg37
(dp657
sg81
g53
sg82
g606
sbsg83
S'/home/roland/Aktuell/Case Studies/examination-scheduling/booth/plots/'
p658
sg85
(dp659
I0
(dp660
I0
g88
sI1
g88
sI2
g88
sI3
g88
sI4
g88
sI5
g88
sI6
g88
sI7
g88
sI8
g88
sI9
g88
sI10
g88
sI11
g88
sI12
g88
sI13
g88
sI14
g88
ssI1
(dp661
I0
g88
sI1
g88
sI2
g88
sI3
g88
sI4
g36
sI5
g88
sI6
g88
sI7
g88
sI8
g88
sI9
g88
sI10
g88
sI11
g88
sI12
g88
sI13
g88
sI14
g88
ssI2
(dp662
I0
g88
sI1
g88
sI2
g88
sI3
g88
sI4
g36
sI5
g88
sI6
g88
sI7
g88
sI8
g88
sI9
g88
sI10
g88
sI11
g35
sI12
g88
sI13
g88
sI14
g88
ssI3
(dp663
I0
g88
sI1
g88
sI2
g88
sI3
g88
sI4
g36
sI5
g88
sI6
g88
sI7
g88
sI8
g88
sI9
g88
sI10
g88
sI11
g35
sI12
g88
sI13
g36
sI14
g88
ssI4
(dp664
I0
g88
sI1
g88
sI2
g88
sI3
g88
sI4
g36
sI5
g88
sI6
g88
sI7
g36
sI8
g88
sI9
g88
sI10
g88
sI11
g35
sI12
g88
sI13
g36
sI14
g88
ssI5
(dp665
I0
g88
sI1
g88
sI2
g88
sI3
g88
sI4
g36
sI5
g36
sI6
g88
sI7
g36
sI8
g88
sI9
g88
sI10
g88
sI11
g35
sI12
g88
sI13
g36
sI14
g88
ssI6
(dp666
I0
g88
sI1
g88
sI2
g88
sI3
g35
sI4
g36
sI5
g36
sI6
g88
sI7
g36
sI8
g88
sI9
g88
sI10
g88
sI11
g35
sI12
g88
sI13
g36
sI14
g88
ssI7
(dp667
I0
g88
sI1
g88
sI2
g88
sI3
g35
sI4
g36
sI5
g36
sI6
g88
sI7
g36
sI8
g88
sI9
g88
sI10
g36
sI11
g35
sI12
g88
sI13
g36
sI14
g88
ssI8
(dp668
I0
g35
sI1
g88
sI2
g88
sI3
g35
sI4
g36
sI5
g36
sI6
g88
sI7
g36
sI8
g88
sI9
g88
sI10
g36
sI11
g35
sI12
g88
sI13
g36
sI14
g88
ssI9
(dp669
I0
g35
sI1
g88
sI2
g88
sI3
g35
sI4
g36
sI5
g36
sI6
g88
sI7
g36
sI8
g88
sI9
g88
sI10
g36
sI11
g35
sI12
g36
sI13
g36
sI14
g88
ssI10
(dp670
I0
g35
sI1
g88
sI2
g88
sI3
g35
sI4
g36
sI5
g36
sI6
g88
sI7
g36
sI8
g88
sI9
g34
sI10
g36
sI11
g35
sI12
g36
sI13
g36
sI14
g88
ssI11
(dp671
I0
g35
sI1
g88
sI2
g88
sI3
g35
sI4
g36
sI5
g36
sI6
g88
sI7
g36
sI8
g34
sI9
g34
sI10
g36
sI11
g35
sI12
g36
sI13
g36
sI14
g88
ssI12
(dp672
I0
g35
sI1
g88
sI2
g88
sI3
g35
sI4
g36
sI5
g36
sI6
g35
sI7
g36
sI8
g34
sI9
g34
sI10
g36
sI11
g35
sI12
g36
sI13
g36
sI14
g88
ssI13
(dp673
I0
g35
sI1
g88
sI2
g34
sI3
g35
sI4
g36
sI5
g36
sI6
g35
sI7
g36
sI8
g34
sI9
g34
sI10
g36
sI11
g35
sI12
g36
sI13
g36
sI14
g88
ssI14
(dp674
I0
g35
sI1
g34
sI2
g34
sI3
g35
sI4
g36
sI5
g36
sI6
g35
sI7
g36
sI8
g34
sI9
g34
sI10
g36
sI11
g35
sI12
g36
sI13
g36
sI14
g88
ssI15
(dp675
I0
g35
sI1
g34
sI2
g34
sI3
g35
sI4
g36
sI5
g36
sI6
g35
sI7
g36
sI8
g34
sI9
g34
sI10
g36
sI11
g35
sI12
g36
sI13
g36
sI14
g34
sssbI1
tp676
sI16
(g1
(g2
g3
Ntp677
Rp678
(dp679
g7
(lp680
g9
ag10
ag11
ag12
ag13
ag14
ag15
ag16
ag17
ag18
aS'10'
p681
aS'11'
p682
aS'12'
p683
aS'13'
p684
aS'14'
p685
aS'15'
p686
aS'16'
p687
aS'17'
p688
aS'18'
p689
aS'19'
p690
asg29
g30
sg31
I01
sg32
(dp691
I0
g36
sI1
g36
sI2
S'purple'
p692
sI3
g36
sI4
g35
sI5
g35
sI6
g34
sI7
g34
sI8
g36
sI9
g35
sI10
g692
sI11
g692
sI12
g35
sI13
g34
sI14
g34
sI15
g692
ssg37
g1
(g38
g3
Ntp693
Rp694
(dp695
g42
(dp696
I0
(dp697
sI1
(dp698
sI2
(dp699
sI3
(dp700
sI4
(dp701
sI5
(dp702
sI6
(dp703
sI7
(dp704
sI8
(dp705
sI9
(dp706
sI10
(dp707
sI11
(dp708
sI12
(dp709
sI13
(dp710
sI14
(dp711
sI15
(dp712
ssg52
g53
sg54
g53
sg55
(dp713
I0
(dp714
I13
(dp715
sI14
(dp716
ssI1
(dp717
I4
(dp718
sI6
(dp719
sI7
(dp720
sI9
(dp721
sI10
(dp722
sI15
(dp723
ssI2
(dp724
I8
(dp725
sI3
(dp726
sI12
(dp727
sI7
(dp728
ssI3
(dp729
I2
g726
sI4
(dp730
sI10
(dp731
sI6
(dp732
sI7
(dp733
ssI4
(dp734
I1
g718
sI3
g730
sI7
(dp735
sI8
(dp736
sI11
(dp737
sI15
(dp738
ssI5
(dp739
I8
(dp740
sI10
(dp741
sI13
(dp742
sI14
(dp743
sI15
(dp744
ssI6
(dp745
I1
g719
sI3
g732
sI8
(dp746
sI10
(dp747
sI12
(dp748
sI15
(dp749
ssI7
(dp750
I1
g720
sI2
g728
sI3
g733
sI4
g735
sI9
(dp751
sI10
(dp752
sI11
(dp753
sI15
(dp754
ssI8
(dp755
I2
g725
sI4
g736
sI5
g740
sI6
g746
sI11
(dp756
sI12
(dp757
sI13
(dp758
sI14
(dp759
ssI9
(dp760
I1
g721
sI10
(dp761
sI11
(dp762
sI13
(dp763
sI7
g751
ssI10
(dp764
I1
g722
sI3
g731
sI5
g741
sI6
g747
sI7
g752
sI9
g761
ssI11
(dp765
I4
g737
sI7
g753
sI8
g756
sI9
g762
sI13
(dp766
sI14
(dp767
ssI12
(dp768
I8
g757
sI2
g727
sI6
g748
ssI13
(dp769
I0
g715
sI8
g758
sI11
g766
sI5
g742
sI9
g763
ssI14
(dp770
I0
g716
sI8
g759
sI11
g767
sI5
g743
sI15
(dp771
ssI15
(dp772
I1
g723
sI4
g738
sI5
g744
sI6
g749
sI7
g754
sI14
g771
sssg37
(dp773
sg81
g53
sg82
g713
sbsg83
S'/home/roland/Aktuell/Case Studies/examination-scheduling/booth/plots/'
p774
sg85
(dp775
I0
(dp776
I0
g88
sI1
g88
sI2
g88
sI3
g88
sI4
g88
sI5
g88
sI6
g88
sI7
g88
sI8
g88
sI9
g88
sI10
g88
sI11
g88
sI12
g88
sI13
g88
sI14
g88
sI15
g88
ssI1
(dp777
I0
g88
sI1
g88
sI2
g88
sI3
g88
sI4
g88
sI5
g88
sI6
g88
sI7
g88
sI8
g36
sI9
g88
sI10
g88
sI11
g88
sI12
g88
sI13
g88
sI14
g88
sI15
g88
ssI2
(dp778
I0
g88
sI1
g88
sI2
g88
sI3
g88
sI4
g88
sI5
g35
sI6
g88
sI7
g88
sI8
g36
sI9
g88
sI10
g88
sI11
g88
sI12
g88
sI13
g88
sI14
g88
sI15
g88
ssI3
(dp779
I0
g88
sI1
g36
sI2
g88
sI3
g88
sI4
g88
sI5
g35
sI6
g88
sI7
g88
sI8
g36
sI9
g88
sI10
g88
sI11
g88
sI12
g88
sI13
g88
sI14
g88
sI15
g88
ssI4
(dp780
I0
g88
sI1
g36
sI2
g88
sI3
g36
sI4
g88
sI5
g35
sI6
g88
sI7
g88
sI8
g36
sI9
g88
sI10
g88
sI11
g88
sI12
g88
sI13
g88
sI14
g88
sI15
g88
ssI5
(dp781
I0
g36
sI1
g36
sI2
g88
sI3
g36
sI4
g88
sI5
g35
sI6
g88
sI7
g88
sI8
g36
sI9
g88
sI10
g88
sI11
g88
sI12
g88
sI13
g88
sI14
g88
sI15
g88
ssI6
(dp782
I0
g36
sI1
g36
sI2
g88
sI3
g36
sI4
g35
sI5
g35
sI6
g88
sI7
g88
sI8
g36
sI9
g88
sI10
g88
sI11
g88
sI12
g88
sI13
g88
sI14
g88
sI15
g88
ssI7
(dp783
I0
g36
sI1
g36
sI2
g88
sI3
g36
sI4
g35
sI5
g35
sI6
g88
sI7
g88
sI8
g36
sI9
g88
sI10
g88
sI11
g88
sI12
g35
sI13
g88
sI14
g88
sI15
g88
ssI8
(dp784
I0
g36
sI1
g36
sI2
g88
sI3
g36
sI4
g35
sI5
g35
sI6
g88
sI7
g88
sI8
g36
sI9
g88
sI10
g88
sI11
g88
sI12
g35
sI13
g88
sI14
g34
sI15
g88
ssI9
(dp785
I0
g36
sI1
g36
sI2
g88
sI3
g36
sI4
g35
sI5
g35
sI6
g88
sI7
g88
sI8
g36
sI9
g35
sI10
g88
sI11
g88
sI12
g35
sI13
g88
sI14
g34
sI15
g88
ssI10
(dp786
I0
g36
sI1
g36
sI2
g88
sI3
g36
sI4
g35
sI5
g35
sI6
g88
sI7
g34
sI8
g36
sI9
g35
sI10
g88
sI11
g88
sI12
g35
sI13
g88
sI14
g34
sI15
g88
ssI11
(dp787
I0
g36
sI1
g36
sI2
g692
sI3
g36
sI4
g35
sI5
g35
sI6
g88
sI7
g34
sI8
g36
sI9
g35
sI10
g88
sI11
g88
sI12
g35
sI13
g88
sI14
g34
sI15
g88
ssI12
(dp788
I0
g36
sI1
g36
sI2
g692
sI3
g36
sI4
g35
sI5
g35
sI6
g88
sI7
g34
sI8
g36
sI9
g35
sI10
g692
sI11
g88
sI12
g35
sI13
g88
sI14
g34
sI15
g88
ssI13
(dp789
I0
g36
sI1
g36
sI2
g692
sI3
g36
sI4
g35
sI5
g35
sI6
g88
sI7
g34
sI8
g36
sI9
g35
sI10
g692
sI11
g88
sI12
g35
sI13
g34
sI14
g34
sI15
g88
ssI14
(dp790
I0
g36
sI1
g36
sI2
g692
sI3
g36
sI4
g35
sI5
g35
sI6
g34
sI7
g34
sI8
g36
sI9
g35
sI10
g692
sI11
g88
sI12
g35
sI13
g34
sI14
g34
sI15
g88
ssI15
(dp791
I0
g36
sI1
g36
sI2
g692
sI3
g36
sI4
g35
sI5
g35
sI6
g34
sI7
g34
sI8
g36
sI9
g35
sI10
g692
sI11
g88
sI12
g35
sI13
g34
sI14
g34
sI15
g692
ssI16
(dp792
I0
g36
sI1
g36
sI2
g692
sI3
g36
sI4
g35
sI5
g35
sI6
g34
sI7
g34
sI8
g36
sI9
g35
sI10
g692
sI11
g692
sI12
g35
sI13
g34
sI14
g34
sI15
g692
sssbI1
tp793
sI17
(g1
(g2
g3
Ntp794
Rp795
(dp796
g7
(lp797
g9
ag10
ag11
ag12
ag13
ag14
ag15
ag16
ag17
ag18
aS'10'
p798
aS'11'
p799
aS'12'
p800
aS'13'
p801
aS'14'
p802
aS'15'
p803
aS'16'
p804
aS'17'
p805
aS'18'
p806
aS'19'
p807
asg29
g30
sg31
I01
sg32
(dp808
I0
g36
sI1
g36
sI2
g36
sI3
g692
sI4
g692
sI5
g35
sI6
g34
sI7
g34
sI8
g34
sI9
g35
sI10
g36
sI11
g36
sI12
g34
sI13
g36
sI14
g34
sI15
g36
sI16
g35
ssg37
g1
(g38
g3
Ntp809
Rp810
(dp811
g42
(dp812
I0
(dp813
sI1
(dp814
sI2
(dp815
sI3
(dp816
sI4
(dp817
sI5
(dp818
sI6
(dp819
sI7
(dp820
sI8
(dp821
sI9
(dp822
sI10
(dp823
sI11
(dp824
sI12
(dp825
sI13
(dp826
sI14
(dp827
sI15
(dp828
sI16
(dp829
ssg52
g53
sg54
g53
sg55
(dp830
I0
(dp831
I16
(dp832
sI14
(dp833
sI3
(dp834
sI5
(dp835
sI6
(dp836
ssI1
(dp837
I16
(dp838
sI7
(dp839
ssI2
(dp840
I14
(dp841
ssI3
(dp842
I0
g834
sI5
(dp843
sI6
(dp844
sI7
(dp845
sI13
(dp846
sI14
(dp847
sI16
(dp848
ssI4
(dp849
I5
(dp850
sI7
(dp851
sI8
(dp852
sI9
(dp853
sI10
(dp854
sI14
(dp855
sI16
(dp856
ssI5
(dp857
I0
g835
sI3
g843
sI4
g850
sI6
(dp858
sI7
(dp859
sI11
(dp860
ssI6
(dp861
I0
g836
sI16
(dp862
sI3
g844
sI5
g858
sI13
(dp863
ssI7
(dp864
I1
g839
sI3
g845
sI4
g851
sI5
g859
sI11
(dp865
sI15
(dp866
ssI8
(dp867
I9
(dp868
sI11
(dp869
sI4
g852
ssI9
(dp870
I8
g868
sI12
(dp871
sI10
(dp872
sI4
g853
sI14
(dp873
ssI10
(dp874
I9
g872
sI4
g854
sI12
(dp875
ssI11
(dp876
I8
g869
sI12
(dp877
sI5
g860
sI7
g865
ssI12
(dp878
I9
g871
sI10
g875
sI11
g877
sI13
(dp879
ssI13
(dp880
I16
(dp881
sI3
g846
sI12
g879
sI14
(dp882
sI6
g863
ssI14
(dp883
I0
g833
sI2
g841
sI3
g847
sI4
g855
sI9
g873
sI13
g882
ssI15
(dp884
I16
(dp885
sI7
g866
ssI16
(dp886
I0
g832
sI1
g838
sI3
g848
sI4
g856
sI6
g862
sI13
g881
sI15
g885
sssg37
(dp887
sg81
g53
sg82
g830
sbsg83
S'/home/roland/Aktuell/Case Studies/examination-scheduling/booth/plots/'
p888
sg85
(dp889
I0
(dp890
I0
g88
sI1
g88
sI2
g88
sI3
g88
sI4
g88
sI5
g88
sI6
g88
sI7
g88
sI8
g88
sI9
g88
sI10
g88
sI11
g88
sI12
g88
sI13
g88
sI14
g88
sI15
g88
sI16
g88
ssI1
(dp891
I0
g88
sI1
g88
sI2
g88
sI3
g88
sI4
g88
sI5
g88
sI6
g88
sI7
g88
sI8
g88
sI9
g88
sI10
g88
sI11
g88
sI12
g88
sI13
g36
sI14
g88
sI15
g88
sI16
g88
ssI2
(dp892
I0
g88
sI1
g88
sI2
g88
sI3
g88
sI4
g88
sI5
g88
sI6
g88
sI7
g88
sI8
g88
sI9
g88
sI10
g36
sI11
g88
sI12
g88
sI13
g36
sI14
g88
sI15
g88
sI16
g88
ssI3
(dp893
I0
g88
sI1
g88
sI2
g88
sI3
g88
sI4
g88
sI5
g88
sI6
g88
sI7
g88
sI8
g88
sI9
g88
sI10
g36
sI11
g36
sI12
g88
sI13
g36
sI14
g88
sI15
g88
sI16
g88
ssI4
(dp894
I0
g88
sI1
g88
sI2
g88
sI3
g88
sI4
g88
sI5
g88
sI6
g88
sI7
g88
sI8
g88
sI9
g88
sI10
g36
sI11
g36
sI12
g88
sI13
g36
sI14
g88
sI15
g36
sI16
g88
ssI5
(dp895
I0
g88
sI1
g36
sI2
g88
sI3
g88
sI4
g88
sI5
g88
sI6
g88
sI7
g88
sI8
g88
sI9
g88
sI10
g36
sI11
g36
sI12
g88
sI13
g36
sI14
g88
sI15
g36
sI16
g88
ssI6
(dp896
I0
g88
sI1
g36
sI2
g88
sI3
g88
sI4
g88
sI5
g88
sI6
g88
sI7
g88
sI8
g88
sI9
g35
sI10
g36
sI11
g36
sI12
g88
sI13
g36
sI14
g88
sI15
g36
sI16
g88
ssI7
(dp897
I0
g88
sI1
g36
sI2
g88
sI3
g88
sI4
g88
sI5
g88
sI6
g88
sI7
g88
sI8
g88
sI9
g35
sI10
g36
sI11
g36
sI12
g34
sI13
g36
sI14
g88
sI15
g36
sI16
g88
ssI8
(dp898
I0
g88
sI1
g36
sI2
g36
sI3
g88
sI4
g88
sI5
g88
sI6
g88
sI7
g88
sI8
g88
sI9
g35
sI10
g36
sI11
g36
sI12
g34
sI13
g36
sI14
g88
sI15
g36
sI16
g88
ssI9
(dp899
I0
g88
sI1
g36
sI2
g36
sI3
g88
sI4
g88
sI5
g88
sI6
g88
sI7
g88
sI8
g34
sI9
g35
sI10
g36
sI11
g36
sI12
g34
sI13
g36
sI14
g88
sI15
g36
sI16
g88
ssI10
(dp900
I0
g88
sI1
g36
sI2
g36
sI3
g88
sI4
g88
sI5
g88
sI6
g88
sI7
g88
sI8
g34
sI9
g35
sI10
g36
sI11
g36
sI12
g34
sI13
g36
sI14
g88
sI15
g36
sI16
g35
ssI11
(dp901
I0
g88
sI1
g36
sI2
g36
sI3
g88
sI4
g88
sI5
g35
sI6
g88
sI7
g88
sI8
g34
sI9
g35
sI10
g36
sI11
g36
sI12
g34
sI13
g36
sI14
g88
sI15
g36
sI16
g35
ssI12
(dp902
I0
g88
sI1
g36
sI2
g36
sI3
g88
sI4
g88
sI5
g35
sI6
g34
sI7
g88
sI8
g34
sI9
g35
sI10
g36
sI11
g36
sI12
g34
sI13
g36
sI14
g88
sI15
g36
sI16
g35
ssI13
(dp903
I0
g36
sI1
g36
sI2
g36
sI3
g88
sI4
g88
sI5
g35
sI6
g34
sI7
g88
sI8
g34
sI9
g35
sI10
g36
sI11
g36
sI12
g34
sI13
g36
sI14
g88
sI15
g36
sI16
g35
ssI14
(dp904
I0
g36
sI1
g36
sI2
g36
sI3
g88
sI4
g88
sI5
g35
sI6
g34
sI7
g88
sI8
g34
sI9
g35
sI10
g36
sI11
g36
sI12
g34
sI13
g36
sI14
g34
sI15
g36
sI16
g35
ssI15
(dp905
I0
g36
sI1
g36
sI2
g36
sI3
g692
sI4
g88
sI5
g35
sI6
g34
sI7
g88
sI8
g34
sI9
g35
sI10
g36
sI11
g36
sI12
g34
sI13
g36
sI14
g34
sI15
g36
sI16
g35
ssI16
(dp906
I0
g36
sI1
g36
sI2
g36
sI3
g692
sI4
g88
sI5
g35
sI6
g34
sI7
g34
sI8
g34
sI9
g35
sI10
g36
sI11
g36
sI12
g34
sI13
g36
sI14
g34
sI15
g36
sI16
g35
ssI17
(dp907
I0
g36
sI1
g36
sI2
g36
sI3
g692
sI4
g692
sI5
g35
sI6
g34
sI7
g34
sI8
g34
sI9
g35
sI10
g36
sI11
g36
sI12
g34
sI13
g36
sI14
g34
sI15
g36
sI16
g35
sssbI1
tp908
sI18
(g1
(g2
g3
Ntp909
Rp910
(dp911
g7
(lp912
g9
ag10
ag11
ag12
ag13
ag14
ag15
ag16
ag17
ag18
aS'10'
p913
aS'11'
p914
aS'12'
p915
aS'13'
p916
aS'14'
p917
aS'15'
p918
aS'16'
p919
aS'17'
p920
aS'18'
p921
aS'19'
p922
asg29
g30
sg31
I01
sg32
(dp923
I0
g34
sI1
g36
sI2
g35
sI3
g35
sI4
g36
sI5
g34
sI6
g36
sI7
g35
sI8
g34
sI9
g36
sI10
g692
sI11
g692
sI12
g692
sI13
g692
sI14
g34
sI15
g35
sI16
g34
sI17
g36
ssg37
g1
(g38
g3
Ntp924
Rp925
(dp926
g42
(dp927
I0
(dp928
sI1
(dp929
sI2
(dp930
sI3
(dp931
sI4
(dp932
sI5
(dp933
sI6
(dp934
sI7
(dp935
sI8
(dp936
sI9
(dp937
sI10
(dp938
sI11
(dp939
sI12
(dp940
sI13
(dp941
sI14
(dp942
sI15
(dp943
sI16
(dp944
sI17
(dp945
ssg52
g53
sg54
g53
sg55
(dp946
I0
(dp947
I1
(dp948
sI2
(dp949
sI17
(dp950
sI9
(dp951
ssI1
(dp952
I0
g948
sI8
(dp953
sI2
(dp954
sI5
(dp955
sI7
(dp956
ssI2
(dp957
I0
g949
sI1
g954
sI5
(dp958
sI9
(dp959
sI10
(dp960
sI12
(dp961
sI16
(dp962
ssI3
(dp963
I4
(dp964
sI8
(dp965
sI9
(dp966
sI10
(dp967
sI11
(dp968
sI13
(dp969
sI16
(dp970
sI17
(dp971
ssI4
(dp972
I15
(dp973
sI10
(dp974
sI3
g964
sI5
(dp975
sI7
(dp976
ssI5
(dp977
I1
g955
sI2
g958
sI4
g975
sI7
(dp978
sI9
(dp979
sI10
(dp980
sI13
(dp981
ssI6
(dp982
I16
(dp983
sI10
(dp984
sI13
(dp985
sI15
(dp986
ssI7
(dp987
I1
g956
sI4
g976
sI5
g978
sI8
(dp988
sI11
(dp989
sI12
(dp990
sI13
(dp991
sI16
(dp992
ssI8
(dp993
I1
g953
sI3
g965
sI7
g988
sI11
(dp994
sI12
(dp995
sI17
(dp996
ssI9
(dp997
I0
g951
sI2
g959
sI3
g966
sI5
g979
sI11
(dp998
sI13
(dp999
sI14
(dp1000
sI15
(dp1001
ssI10
(dp1002
I2
g960
sI3
g967
sI4
g974
sI5
g980
sI6
g984
sI14
(dp1003
sI16
(dp1004
ssI11
(dp1005
I8
g994
sI9
g998
sI3
g968
sI17
(dp1006
sI7
g989
ssI12
(dp1007
I2
g961
sI7
g990
sI8
g995
sI14
(dp1008
sI15
(dp1009
sI16
(dp1010
sI17
(dp1011
ssI13
(dp1012
I3
g969
sI5
g981
sI6
g985
sI7
g991
sI9
g999
sI14
(dp1013
ssI14
(dp1014
I9
g1000
sI10
g1003
sI12
g1008
sI13
g1013
sI15
(dp1015
ssI15
(dp1016
I4
g973
sI6
g986
sI9
g1001
sI12
g1009
sI14
g1015
sI16
(dp1017
ssI16
(dp1018
I2
g962
sI3
g970
sI6
g983
sI7
g992
sI10
g1004
sI12
g1010
sI15
g1017
ssI17
(dp1019
I0
g950
sI8
g996
sI3
g971
sI12
g1011
sI11
g1006
sssg37
(dp1020
sg81
g53
sg82
g946
sbsg83
S'/home/roland/Aktuell/Case Studies/examination-scheduling/booth/plots/'
p1021
sg85
(dp1022
I0
(dp1023
I0
g88
sI1
g88
sI2
g88
sI3
g88
sI4
g88
sI5
g88
sI6
g88
sI7
g88
sI8
g88
sI9
g88
sI10
g88
sI11
g88
sI12
g88
sI13
g88
sI14
g88
sI15
g88
sI16
g88
sI17
g88
ssI1
(dp1024
I0
g88
sI1
g88
sI2
g88
sI3
g88
sI4
g88
sI5
g88
sI6
g88
sI7
g88
sI8
g88
sI9
g88
sI10
g88
sI11
g88
sI12
g88
sI13
g88
sI14
g88
sI15
g88
sI16
g88
sI17
g36
ssI2
(dp1025
I0
g88
sI1
g36
sI2
g88
sI3
g88
sI4
g88
sI5
g88
sI6
g88
sI7
g88
sI8
g88
sI9
g88
sI10
g88
sI11
g88
sI12
g88
sI13
g88
sI14
g88
sI15
g88
sI16
g88
sI17
g36
ssI3
(dp1026
I0
g88
sI1
g36
sI2
g88
sI3
g88
sI4
g88
sI5
g88
sI6
g88
sI7
g88
sI8
g88
sI9
g36
sI10
g88
sI11
g88
sI12
g88
sI13
g88
sI14
g88
sI15
g88
sI16
g88
sI17
g36
ssI4
(dp1027
I0
g88
sI1
g36
sI2
g88
sI3
g88
sI4
g88
sI5
g88
sI6
g88
sI7
g88
sI8
g88
sI9
g36
sI10
g88
sI11
g88
sI12
g88
sI13
g88
sI14
g88
sI15
g35
sI16
g88
sI17
g36
ssI5
(dp1028
I0
g88
sI1
g36
sI2
g35
sI3
g88
sI4
g88
sI5
g88
sI6
g88
sI7
g88
sI8
g88
sI9
g36
sI10
g88
sI11
g88
sI12
g88
sI13
g88
sI14
g88
sI15
g35
sI16
g88
sI17
g36
ssI6
(dp1029
I0
g88
sI1
g36
sI2
g35
sI3
g88
sI4
g88
sI5
g88
sI6
g36
sI7
g88
sI8
g88
sI9
g36
sI10
g88
sI11
g88
sI12
g88
sI13
g88
sI14
g88
sI15
g35
sI16
g88
sI17
g36
ssI7
(dp1030
I0
g88
sI1
g36
sI2
g35
sI3
g88
sI4
g88
sI5
g88
sI6
g36
sI7
g35
sI8
g88
sI9
g36
sI10
g88
sI11
g88
sI12
g88
sI13
g88
sI14
g88
sI15
g35
sI16
g88
sI17
g36
ssI8
(dp1031
I0
g88
sI1
g36
sI2
g35
sI3
g88
sI4
g88
sI5
g88
sI6
g36
sI7
g35
sI8
g34
sI9
g36
sI10
g88
sI11
g88
sI12
g88
sI13
g88
sI14
g88
sI15
g35
sI16
g88
sI17
g36
ssI9
(dp1032
I0
g88
sI1
g36
sI2
g35
sI3
g88
sI4
g88
sI5
g34
sI6
g36
sI7
g35
sI8
g34
sI9
g36
sI10
g88
sI11
g88
sI12
g88
sI13
g88
sI14
g88
sI15
g35
sI16
g88
sI17
g36
ssI10
(dp1033
I0
g34
sI1
g36
sI2
g35
sI3
g88
sI4
g88
sI5
g34
sI6
g36
sI7
g35
sI8
g34
sI9
g36
sI10
g88
sI11
g88
sI12
g88
sI13
g88
sI14
g88
sI15
g35
sI16
g88
sI17
g36
ssI11
(dp1034
I0
g34
sI1
g36
sI2
g35
sI3
g88
sI4
g88
sI5
g34
sI6
g36
sI7
g35
sI8
g34
sI9
g36
sI10
g88
sI11
g692
sI12
g88
sI13
g88
sI14
g88
sI15
g35
sI16
g88
sI17
g36
ssI12
(dp1035
I0
g34
sI1
g36
sI2
g35
sI3
g35
sI4
g88
sI5
g34
sI6
g36
sI7
g35
sI8
g34
sI9
g36
sI10
g88
sI11
g692
sI12
g88
sI13
g88
sI14
g88
sI15
g35
sI16
g88
sI17
g36
ssI13
(dp1036
I0
g34
sI1
g36
sI2
g35
sI3
g35
sI4
g36
sI5
g34
sI6
g36
sI7
g35
sI8
g34
sI9
g36
sI10
g88
sI11
g692
sI12
g88
sI13
g88
sI14
g88
sI15
g35
sI16
g88
sI17
g36
ssI14
(dp1037
I0
g34
sI1
g36
sI2
g35
sI3
g35
sI4
g36
sI5
g34
sI6
g36
sI7
g35
sI8
g34
sI9
g36
sI10
g88
sI11
g692
sI12
g88
sI13
g692
sI14
g88
sI15
g35
sI16
g88
sI17
g36
ssI15
(dp1038
I0
g34
sI1
g36
sI2
g35
sI3
g35
sI4
g36
sI5
g34
sI6
g36
sI7
g35
sI8
g34
sI9
g36
sI10
g88
sI11
g692
sI12
g88
sI13
g692
sI14
g34
sI15
g35
sI16
g88
sI17
g36
ssI16
(dp1039
I0
g34
sI1
g36
sI2
g35
sI3
g35
sI4
g36
sI5
g34
sI6
g36
sI7
g35
sI8
g34
sI9
g36
sI10
g692
sI11
g692
sI12
g88
sI13
g692
sI14
g34
sI15
g35
sI16
g88
sI17
g36
ssI17
(dp1040
I0
g34
sI1
g36
sI2
g35
sI3
g35
sI4
g36
sI5
g34
sI6
g36
sI7
g35
sI8
g34
sI9
g36
sI10
g692
sI11
g692
sI12
g692
sI13
g692
sI14
g34
sI15
g35
sI16
g88
sI17
g36
ssI18
(dp1041
I0
g34
sI1
g36
sI2
g35
sI3
g35
sI4
g36
sI5
g34
sI6
g36
sI7
g35
sI8
g34
sI9
g36
sI10
g692
sI11
g692
sI12
g692
sI13
g692
sI14
g34
sI15
g35
sI16
g34
sI17
g36
sssbI1
tp1042
sI19
(g1
(g2
g3
Ntp1043
Rp1044
(dp1045
g7
(lp1046
g9
ag10
ag11
ag12
ag13
ag14
ag15
ag16
ag17
ag18
aS'10'
p1047
aS'11'
p1048
aS'12'
p1049
aS'13'
p1050
aS'14'
p1051
aS'15'
p1052
aS'16'
p1053
aS'17'
p1054
aS'18'
p1055
aS'19'
p1056
asg29
g30
sg31
I01
sg32
(dp1057
I0
g36
sI1
g36
sI2
g34
sI3
g36
sI4
g35
sI5
g34
sI6
g35
sI7
g35
sI8
g35
sI9
g34
sI10
g36
sI11
g36
sI12
g34
sI13
g34
sI14
g34
sI15
g692
sI16
g35
sI17
g692
sI18
g36
ssg37
g1
(g38
g3
Ntp1058
Rp1059
(dp1060
g42
(dp1061
I0
(dp1062
sI1
(dp1063
sI2
(dp1064
sI3
(dp1065
sI4
(dp1066
sI5
(dp1067
sI6
(dp1068
sI7
(dp1069
sI8
(dp1070
sI9
(dp1071
sI10
(dp1072
sI11
(dp1073
sI12
(dp1074
sI13
(dp1075
sI14
(dp1076
sI15
(dp1077
sI16
(dp1078
sI17
(dp1079
sI18
(dp1080
ssg52
g53
sg54
g53
sg55
(dp1081
I0
(dp1082
I9
(dp1083
sI4
(dp1084
sI5
(dp1085
sI14
(dp1086
sI15
(dp1087
ssI1
(dp1088
I2
(dp1089
sI6
(dp1090
sI8
(dp1091
sI13
(dp1092
sI14
(dp1093
sI15
(dp1094
ssI2
(dp1095
I8
(dp1096
sI1
g1089
sI10
(dp1097
sI18
(dp1098
sI16
(dp1099
ssI3
(dp1100
I9
(dp1101
sI12
(dp1102
sI14
(dp1103
sI6
(dp1104
sI7
(dp1105
ssI4
(dp1106
I0
g1084
sI9
(dp1107
sI17
(dp1108
sI5
(dp1109
sI13
(dp1110
ssI5
(dp1111
I0
g1085
sI4
g1109
sI6
(dp1112
sI10
(dp1113
sI11
(dp1114
sI15
(dp1115
ssI6
(dp1116
I1
g1090
sI3
g1104
sI5
g1112
sI10
(dp1117
sI11
(dp1118
sI12
(dp1119
sI13
(dp1120
ssI7
(dp1121
I17
(dp1122
sI18
(dp1123
sI3
g1105
sI14
(dp1124
ssI8
(dp1125
I1
g1091
sI2
g1096
sI10
(dp1126
sI13
(dp1127
sI14
(dp1128
sI17
(dp1129
ssI9
(dp1130
I0
g1083
sI3
g1101
sI4
g1107
sI11
(dp1131
sI16
(dp1132
sI17
(dp1133
ssI10
(dp1134
I2
g1097
sI5
g1113
sI6
g1117
sI8
g1126
sI13
(dp1135
sI14
(dp1136
sI17
(dp1137
ssI11
(dp1138
I5
g1114
sI6
g1118
sI9
g1131
sI12
(dp1139
sI16
(dp1140
sI17
(dp1141
ssI12
(dp1142
I11
g1139
sI18
(dp1143
sI3
g1102
sI6
g1119
ssI13
(dp1144
I1
g1092
sI4
g1110
sI6
g1120
sI8
g1127
sI10
g1135
sI17
(dp1145
ssI14
(dp1146
I0
g1086
sI1
g1093
sI3
g1103
sI7
g1124
sI8
g1128
sI10
g1136
sI15
(dp1147
sI16
(dp1148
ssI15
(dp1149
I0
g1087
sI1
g1094
sI5
g1115
sI14
g1147
sI16
(dp1150
sI18
(dp1151
ssI16
(dp1152
I2
g1099
sI9
g1132
sI11
g1140
sI14
g1148
sI15
g1150
sI17
(dp1153
sI18
(dp1154
ssI17
(dp1155
I4
g1108
sI7
g1122
sI8
g1129
sI9
g1133
sI10
g1137
sI11
g1141
sI13
g1145
sI16
g1153
ssI18
(dp1156
I16
g1154
sI2
g1098
sI15
g1151
sI12
g1143
sI7
g1123
sssg37
(dp1157
sg81
g53
sg82
g1081
sbsg83
S'/home/roland/Aktuell/Case Studies/examination-scheduling/booth/plots/'
p1158
sg85
(dp1159
I0
(dp1160
I0
g88
sI1
g88
sI2
g88
sI3
g88
sI4
g88
sI5
g88
sI6
g88
sI7
g88
sI8
g88
sI9
g88
sI10
g88
sI11
g88
sI12
g88
sI13
g88
sI14
g88
sI15
g88
sI16
g88
sI17
g88
sI18
g88
ssI1
(dp1161
I0
g88
sI1
g88
sI2
g88
sI3
g88
sI4
g88
sI5
g88
sI6
g88
sI7
g88
sI8
g88
sI9
g88
sI10
g88
sI11
g88
sI12
g88
sI13
g88
sI14
g88
sI15
g88
sI16
g88
sI17
g88
sI18
g36
ssI2
(dp1162
I0
g88
sI1
g88
sI2
g88
sI3
g88
sI4
g88
sI5
g88
sI6
g88
sI7
g88
sI8
g88
sI9
g88
sI10
g88
sI11
g36
sI12
g88
sI13
g88
sI14
g88
sI15
g88
sI16
g88
sI17
g88
sI18
g36
ssI3
(dp1163
I0
g88
sI1
g36
sI2
g88
sI3
g88
sI4
g88
sI5
g88
sI6
g88
sI7
g88
sI8
g88
sI9
g88
sI10
g88
sI11
g36
sI12
g88
sI13
g88
sI14
g88
sI15
g88
sI16
g88
sI17
g88
sI18
g36
ssI4
(dp1164
I0
g88
sI1
g36
sI2
g88
sI3
g88
sI4
g88
sI5
g88
sI6
g88
sI7
g88
sI8
g35
sI9
g88
sI10
g88
sI11
g36
sI12
g88
sI13
g88
sI14
g88
sI15
g88
sI16
g88
sI17
g88
sI18
g36
ssI5
(dp1165
I0
g88
sI1
g36
sI2
g88
sI3
g88
sI4
g88
sI5
g88
sI6
g88
sI7
g35
sI8
g35
sI9
g88
sI10
g88
sI11
g36
sI12
g88
sI13
g88
sI14
g88
sI15
g88
sI16
g88
sI17
g88
sI18
g36
ssI6
(dp1166
I0
g88
sI1
g36
sI2
g88
sI3
g88
sI4
g88
sI5
g88
sI6
g88
sI7
g35
sI8
g35
sI9
g88
sI10
g88
sI11
g36
sI12
g88
sI13
g88
sI14
g88
sI15
g88
sI16
g35
sI17
g88
sI18
g36
ssI7
(dp1167
I0
g88
sI1
g36
sI2
g88
sI3
g88
sI4
g88
sI5
g88
sI6
g88
sI7
g35
sI8
g35
sI9
g88
sI10
g88
sI11
g36
sI12
g88
sI13
g88
sI14
g34
sI15
g88
sI16
g35
sI17
g88
sI18
g36
ssI8
(dp1168
I0
g88
sI1
g36
sI2
g88
sI3
g88
sI4
g88
sI5
g88
sI6
g35
sI7
g35
sI8
g35
sI9
g88
sI10
g88
sI11
g36
sI12
g88
sI13
g88
sI14
g34
sI15
g88
sI16
g35
sI17
g88
sI18
g36
ssI9
(dp1169
I0
g88
sI1
g36
sI2
g88
sI3
g88
sI4
g88
sI5
g88
sI6
g35
sI7
g35
sI8
g35
sI9
g88
sI10
g88
sI11
g36
sI12
g34
sI13
g88
sI14
g34
sI15
g88
sI16
g35
sI17
g88
sI18
g36
ssI10
(dp1170
I0
g88
sI1
g36
sI2
g88
sI3
g88
sI4
g88
sI5
g34
sI6
g35
sI7
g35
sI8
g35
sI9
g88
sI10
g88
sI11
g36
sI12
g34
sI13
g88
sI14
g34
sI15
g88
sI16
g35
sI17
g88
sI18
g36
ssI11
(dp1171
I0
g88
sI1
g36
sI2
g88
sI3
g88
sI4
g88
sI5
g34
sI6
g35
sI7
g35
sI8
g35
sI9
g88
sI10
g88
sI11
g36
sI12
g34
sI13
g34
sI14
g34
sI15
g88
sI16
g35
sI17
g88
sI18
g36
ssI12
(dp1172
I0
g88
sI1
g36
sI2
g88
sI3
g88
sI4
g88
sI5
g34
sI6
g35
sI7
g35
sI8
g35
sI9
g88
sI10
g88
sI11
g36
sI12
g34
sI13
g34
sI14
g34
sI15
g88
sI16
g35
sI17
g692
sI18
g36
ssI13
(dp1173
I0
g36
sI1
g36
sI2
g88
sI3
g88
sI4
g88
sI5
g34
sI6
g35
sI7
g35
sI8
g35
sI9
g88
sI10
g88
sI11
g36
sI12
g34
sI13
g34
sI14
g34
sI15
g88
sI16
g35
sI17
g692
sI18
g36
ssI14
(dp1174
I0
g36
sI1
g36
sI2
g88
sI3
g36
sI4
g88
sI5
g34
sI6
g35
sI7
g35
sI8
g35
sI9
g88
sI10
g88
sI11
g36
sI12
g34
sI13
g34
sI14
g34
sI15
g88
sI16
g35
sI17
g692
sI18
g36
ssI15
(dp1175
I0
g36
sI1
g36
sI2
g34
sI3
g36
sI4
g88
sI5
g34
sI6
g35
sI7
g35
sI8
g35
sI9
g88
sI10
g88
sI11
g36
sI12
g34
sI13
g34
sI14
g34
sI15
g88
sI16
g35
sI17
g692
sI18
g36
ssI16
(dp1176
I0
g36
sI1
g36
sI2
g34
sI3
g36
sI4
g88
sI5
g34
sI6
g35
sI7
g35
sI8
g35
sI9
g88
sI10
g88
sI11
g36
sI12
g34
sI13
g34
sI14
g34
sI15
g692
sI16
g35
sI17
g692
sI18
g36
ssI17
(dp1177
I0
g36
sI1
g36
sI2
g34
sI3
g36
sI4
g88
sI5
g34
sI6
g35
sI7
g35
sI8
g35
sI9
g88
sI10
g36
sI11
g36
sI12
g34
sI13
g34
sI14
g34
sI15
g692
sI16
g35
sI17
g692
sI18
g36
ssI18
(dp1178
I0
g36
sI1
g36
sI2
g34
sI3
g36
sI4
g35
sI5
g34
sI6
g35
sI7
g35
sI8
g35
sI9
g88
sI10
g36
sI11
g36
sI12
g34
sI13
g34
sI14
g34
sI15
g692
sI16
g35
sI17
g692
sI18
g36
ssI19
(dp1179
I0
g36
sI1
g36
sI2
g34
sI3
g36
sI4
g35
sI5
g34
sI6
g35
sI7
g35
sI8
g35
sI9
g34
sI10
g36
sI11
g36
sI12
g34
sI13
g34
sI14
g34
sI15
g692
sI16
g35
sI17
g692
sI18
g36
sssbI1
tp1180
sI20
(g1
(g2
g3
Ntp1181
Rp1182
(dp1183
g7
(lp1184
g9
ag10
ag11
ag12
ag13
ag14
ag15
ag16
ag17
ag18
aS'10'
p1185
aS'11'
p1186
aS'12'
p1187
aS'13'
p1188
aS'14'
p1189
aS'15'
p1190
aS'16'
p1191
aS'17'
p1192
aS'18'
p1193
aS'19'
p1194
asg29
g30
sg31
I01
sg32
(dp1195
I0
g692
sI1
g692
sI2
g35
sI3
g36
sI4
g35
sI5
g36
sI6
g35
sI7
g35
sI8
g36
sI9
g34
sI10
g35
sI11
g35
sI12
g34
sI13
g35
sI14
g34
sI15
g36
sI16
g36
sI17
g692
sI18
g36
sI19
g34
ssg37
g1
(g38
g3
Ntp1196
Rp1197
(dp1198
g42
(dp1199
I0
(dp1200
sI1
(dp1201
sI2
(dp1202
sI3
(dp1203
sI4
(dp1204
sI5
(dp1205
sI6
(dp1206
sI7
(dp1207
sI8
(dp1208
sI9
(dp1209
sI10
(dp1210
sI11
(dp1211
sI12
(dp1212
sI13
(dp1213
sI14
(dp1214
sI15
(dp1215
sI16
(dp1216
sI17
(dp1217
sI18
(dp1218
sI19
(dp1219
ssg52
g53
sg54
g53
sg55
(dp1220
I0
(dp1221
I16
(dp1222
sI18
(dp1223
sI12
(dp1224
sI5
(dp1225
sI6
(dp1226
ssI1
(dp1227
I8
(dp1228
sI19
(dp1229
sI3
(dp1230
sI5
(dp1231
sI7
(dp1232
ssI2
(dp1233
I18
(dp1234
sI19
(dp1235
sI5
(dp1236
sI14
(dp1237
ssI3
(dp1238
I1
g1230
sI9
(dp1239
sI10
(dp1240
sI12
(dp1241
sI13
(dp1242
sI14
(dp1243
sI17
(dp1244
ssI4
(dp1245
I19
(dp1246
sI12
(dp1247
sI5
(dp1248
sI15
(dp1249
ssI5
(dp1250
I0
g1225
sI1
g1231
sI2
g1236
sI4
g1248
sI6
(dp1251
sI12
(dp1252
sI17
(dp1253
ssI6
(dp1254
I0
g1226
sI5
g1251
sI8
(dp1255
sI14
(dp1256
sI15
(dp1257
sI17
(dp1258
sI19
(dp1259
ssI7
(dp1260
I16
(dp1261
sI1
g1232
sI12
(dp1262
sI17
(dp1263
ssI8
(dp1264
I1
g1228
sI19
(dp1265
sI12
(dp1266
sI13
(dp1267
sI6
g1255
ssI9
(dp1268
I11
(dp1269
sI16
(dp1270
sI3
g1239
sI17
(dp1271
sI15
(dp1272
ssI10
(dp1273
I16
(dp1274
sI18
(dp1275
sI3
g1240
sI15
(dp1276
ssI11
(dp1277
I9
g1269
sI18
(dp1278
sI14
(dp1279
ssI12
(dp1280
I0
g1224
sI3
g1241
sI4
g1247
sI5
g1252
sI7
g1262
sI8
g1266
sI15
(dp1281
ssI13
(dp1282
I8
g1267
sI16
(dp1283
sI3
g1242
sI19
(dp1284
sI15
(dp1285
ssI14
(dp1286
I2
g1237
sI3
g1243
sI6
g1256
sI11
g1279
sI15
(dp1287
sI16
(dp1288
sI17
(dp1289
sI18
(dp1290
ssI15
(dp1291
I4
g1249
sI6
g1257
sI9
g1272
sI10
g1276
sI12
g1281
sI13
g1285
sI14
g1287
sI19
(dp1292
ssI16
(dp1293
I0
g1222
sI7
g1261
sI9
g1270
sI10
g1274
sI13
g1283
sI14
g1288
sI19
(dp1294
ssI17
(dp1295
I3
g1244
sI5
g1253
sI6
g1258
sI7
g1263
sI9
g1271
sI14
g1289
sI19
(dp1296
ssI18
(dp1297
I0
g1223
sI2
g1234
sI11
g1278
sI10
g1275
sI14
g1290
ssI19
(dp1298
I1
g1229
sI2
g1235
sI4
g1246
sI6
g1259
sI8
g1265
sI13
g1284
sI15
g1292
sI16
g1294
sI17
g1296
sssg37
(dp1299
sg81
g53
sg82
g1220
sbsg83
S'/home/roland/Aktuell/Case Studies/examination-scheduling/booth/plots/'
p1300
sg85
(dp1301
I0
(dp1302
I0
g88
sI1
g88
sI2
g88
sI3
g88
sI4
g88
sI5
g88
sI6
g88
sI7
g88
sI8
g88
sI9
g88
sI10
g88
sI11
g88
sI12
g88
sI13
g88
sI14
g88
sI15
g88
sI16
g88
sI17
g88
sI18
g88
sI19
g88
ssI1
(dp1303
I0
g88
sI1
g88
sI2
g88
sI3
g88
sI4
g88
sI5
g88
sI6
g88
sI7
g88
sI8
g88
sI9
g88
sI10
g88
sI11
g88
sI12
g88
sI13
g88
sI14
g88
sI15
g88
sI16
g36
sI17
g88
sI18
g88
sI19
g88
ssI2
(dp1304
I0
g88
sI1
g88
sI2
g88
sI3
g88
sI4
g88
sI5
g88
sI6
g88
sI7
g88
sI8
g88
sI9
g88
sI10
g88
sI11
g88
sI12
g88
sI13
g88
sI14
g88
sI15
g88
sI16
g36
sI17
g88
sI18
g36
sI19
g88
ssI3
(dp1305
I0
g88
sI1
g88
sI2
g88
sI3
g88
sI4
g88
sI5
g88
sI6
g88
sI7
g88
sI8
g88
sI9
g88
sI10
g35
sI11
g88
sI12
g88
sI13
g88
sI14
g88
sI15
g88
sI16
g36
sI17
g88
sI18
g36
sI19
g88
ssI4
(dp1306
I0
g88
sI1
g88
sI2
g88
sI3
g88
sI4
g88
sI5
g36
sI6
g88
sI7
g88
sI8
g88
sI9
g88
sI10
g35
sI11
g88
sI12
g88
sI13
g88
sI14
g88
sI15
g88
sI16
g36
sI17
g88
sI18
g36
sI19
g88
ssI5
(dp1307
I0
g88
sI1
g88
sI2
g88
sI3
g88
sI4
g88
sI5
g36
sI6
g88
sI7
g88
sI8
g88
sI9
g88
sI10
g35
sI11
g35
sI12
g88
sI13
g88
sI14
g88
sI15
g88
sI16
g36
sI17
g88
sI18
g36
sI19
g88
ssI6
(dp1308
I0
g88
sI1
g88
sI2
g88
sI3
g88
sI4
g88
sI5
g36
sI6
g88
sI7
g35
sI8
g88
sI9
g88
sI10
g35
sI11
g35
sI12
g88
sI13
g88
sI14
g88
sI15
g88
sI16
g36
sI17
g88
sI18
g36
sI19
g88
ssI7
(dp1309
I0
g88
sI1
g88
sI2
g88
sI3
g88
sI4
g88
sI5
g36
sI6
g35
sI7
g35
sI8
g88
sI9
g88
sI10
g35
sI11
g35
sI12
g88
sI13
g88
sI14
g88
sI15
g88
sI16
g36
sI17
g88
sI18
g36
sI19
g88
ssI8
(dp1310
I0
g88
sI1
g88
sI2
g88
sI3
g88
sI4
g88
sI5
g36
sI6
g35
sI7
g35
sI8
g88
sI9
g88
sI10
g35
sI11
g35
sI12
g88
sI13
g88
sI14
g88
sI15
g88
sI16
g36
sI17
g88
sI18
g36
sI19
g34
ssI9
(dp1311
I0
g88
sI1
g88
sI2
g88
sI3
g88
sI4
g88
sI5
g36
sI6
g35
sI7
g35
sI8
g88
sI9
g88
sI10
g35
sI11
g35
sI12
g34
sI13
g88
sI14
g88
sI15
g88
sI16
g36
sI17
g88
sI18
g36
sI19
g34
ssI10
(dp1312
I0
g88
sI1
g88
sI2
g88
sI3
g88
sI4
g88
sI5
g36
sI6
g35
sI7
g35
sI8
g88
sI9
g88
sI10
g35
sI11
g35
sI12
g34
sI13
g88
sI14
g88
sI15
g36
sI16
g36
sI17
g88
sI18
g36
sI19
g34
ssI11
(dp1313
I0
g88
sI1
g88
sI2
g35
sI3
g88
sI4
g88
sI5
g36
sI6
g35
sI7
g35
sI8
g88
sI9
g88
sI10
g35
sI11
g35
sI12
g34
sI13
g88
sI14
g88
sI15
g36
sI16
g36
sI17
g88
sI18
g36
sI19
g34
ssI12
(dp1314
I0
g692
sI1
g88
sI2
g35
sI3
g88
sI4
g88
sI5
g36
sI6
g35
sI7
g35
sI8
g88
sI9
g88
sI10
g35
sI11
g35
sI12
g34
sI13
g88
sI14
g88
sI15
g36
sI16
g36
sI17
g88
sI18
g36
sI19
g34
ssI13
(dp1315
I0
g692
sI1
g88
sI2
g35
sI3
g88
sI4
g88
sI5
g36
sI6
g35
sI7
g35
sI8
g88
sI9
g88
sI10
g35
sI11
g35
sI12
g34
sI13
g88
sI14
g88
sI15
g36
sI16
g36
sI17
g692
sI18
g36
sI19
g34
ssI14
(dp1316
I0
g692
sI1
g88
sI2
g35
sI3
g88
sI4
g35
sI5
g36
sI6
g35
sI7
g35
sI8
g88
sI9
g88
sI10
g35
sI11
g35
sI12
g34
sI13
g88
sI14
g88
sI15
g36
sI16
g36
sI17
g692
sI18
g36
sI19
g34
ssI15
(dp1317
I0
g692
sI1
g692
sI2
g35
sI3
g88
sI4
g35
sI5
g36
sI6
g35
sI7
g35
sI8
g88
sI9
g88
sI10
g35
sI11
g35
sI12
g34
sI13
g88
sI14
g88
sI15
g36
sI16
g36
sI17
g692
sI18
g36
sI19
g34
ssI16
(dp1318
I0
g692
sI1
g692
sI2
g35
sI3
g88
sI4
g35
sI5
g36
sI6
g35
sI7
g35
sI8
g88
sI9
g34
sI10
g35
sI11
g35
sI12
g34
sI13
g88
sI14
g88
sI15
g36
sI16
g36
sI17
g692
sI18
g36
sI19
g34
ssI17
(dp1319
I0
g692
sI1
g692
sI2
g35
sI3
g36
sI4
g35
sI5
g36
sI6
g35
sI7
g35
sI8
g88
sI9
g34
sI10
g35
sI11
g35
sI12
g34
sI13
g88
sI14
g88
sI15
g36
sI16
g36
sI17
g692
sI18
g36
sI19
g34
ssI18
(dp1320
I0
g692
sI1
g692
sI2
g35
sI3
g36
sI4
g35
sI5
g36
sI6
g35
sI7
g35
sI8
g88
sI9
g34
sI10
g35
sI11
g35
sI12
g34
sI13
g35
sI14
g88
sI15
g36
sI16
g36
sI17
g692
sI18
g36
sI19
g34
ssI19
(dp1321
I0
g692
sI1
g692
sI2
g35
sI3
g36
sI4
g35
sI5
g36
sI6
g35
sI7
g35
sI8
g36
sI9
g34
sI10
g35
sI11
g35
sI12
g34
sI13
g35
sI14
g88
sI15
g36
sI16
g36
sI17
g692
sI18
g36
sI19
g34
ssI20
(dp1322
I0
g692
sI1
g692
sI2
g35
sI3
g36
sI4
g35
sI5
g36
sI6
g35
sI7
g35
sI8
g36
sI9
g34
sI10
g35
sI11
g35
sI12
g34
sI13
g35
sI14
g34
sI15
g36
sI16
g36
sI17
g692
sI18
g36
sI19
g34
sssbI1
tp1323
s.