(dp0
I7
(ccopy_reg
_reconstructor
p1
(c__main__
ColorGraph
p2
c__builtin__
object
p3
Ntp4
Rp5
(dp6
S'ALL_COLOURS'
p7
(lp8
S'0'
p9
aS'1'
p10
aS'2'
p11
aS'3'
p12
aS'4'
p13
aS'5'
p14
aS'6'
p15
aS'7'
p16
aS'8'
p17
aS'9'
p18
aS'10'
p19
aS'11'
p20
aS'12'
p21
aS'13'
p22
aS'14'
p23
aS'15'
p24
aS'16'
p25
aS'17'
p26
aS'18'
p27
aS'19'
p28
asS'plotname'
p29
S'graphcolouring'
p30
sS'revert'
p31
I01
sS'colours'
p32
(dp33
I0
S'yellow'
p34
sI1
S'red'
p35
sI2
S'blue'
p36
sI3
g36
sI4
g36
sI5
g35
sI6
g34
ssS'graph'
p37
g1
(cnetworkx.classes.graph
Graph
p38
g3
Ntp39
Rp40
(dp41
S'node'
p42
(dp43
I0
(dp44
sI1
(dp45
sI2
(dp46
sI3
(dp47
sI4
(dp48
sI5
(dp49
sI6
(dp50
ssS'node_dict_factory'
p51
c__builtin__
dict
p52
sS'edge_attr_dict_factory'
p53
g52
sS'edge'
p54
(dp55
I0
(dp56
I2
(dp57
sI3
(dp58
sI4
(dp59
sI5
(dp60
ssI1
(dp61
I2
(dp62
sI3
(dp63
sI4
(dp64
sI6
(dp65
ssI2
(dp66
I0
g57
sI1
g62
sI5
(dp67
sI6
(dp68
ssI3
(dp69
I0
g58
sI1
g63
ssI4
(dp70
I0
g59
sI1
g64
ssI5
(dp71
I0
g60
sI2
g67
sI6
(dp72
ssI6
(dp73
I1
g65
sI2
g68
sI5
g72
sssg37
(dp74
sS'adjlist_dict_factory'
p75
g52
sS'adj'
p76
g55
sbsS'DIRECTORY'
p77
S'/home/mickael/Documents/projects/examination-scheduling/booth/plots/'
p78
sS'history'
p79
(dp80
I0
(dp81
I0
S'white'
p82
sI1
g82
sI2
g82
sI3
g82
sI4
g82
sI5
g82
sI6
g82
ssI1
(dp83
I0
g82
sI1
g82
sI2
g82
sI3
g36
sI4
g82
sI5
g82
sI6
g82
ssI2
(dp84
I0
g82
sI1
g35
sI2
g82
sI3
g36
sI4
g82
sI5
g82
sI6
g82
ssI3
(dp85
I0
g82
sI1
g35
sI2
g36
sI3
g36
sI4
g82
sI5
g82
sI6
g82
ssI4
(dp86
I0
g82
sI1
g35
sI2
g36
sI3
g36
sI4
g82
sI5
g35
sI6
g82
ssI5
(dp87
I0
g82
sI1
g35
sI2
g36
sI3
g36
sI4
g36
sI5
g35
sI6
g82
ssI6
(dp88
I0
g34
sI1
g35
sI2
g36
sI3
g36
sI4
g36
sI5
g35
sI6
g82
ssI7
(dp89
I0
g34
sI1
g35
sI2
g36
sI3
g36
sI4
g36
sI5
g35
sI6
g34
sssbI1
tp90
sI8
(g1
(g2
g3
Ntp91
Rp92
(dp93
g7
(lp94
g9
ag10
ag11
ag12
ag13
ag14
ag15
ag16
ag17
ag18
aS'10'
p95
aS'11'
p96
aS'12'
p97
aS'13'
p98
aS'14'
p99
aS'15'
p100
aS'16'
p101
aS'17'
p102
aS'18'
p103
aS'19'
p104
asg29
g30
sg31
I01
sg32
(dp105
I0
g36
sI1
g36
sI2
g34
sI3
g35
sI4
g35
sI5
g36
sI6
g35
sI7
g34
ssg37
g1
(g38
g3
Ntp106
Rp107
(dp108
g42
(dp109
I0
(dp110
sI1
(dp111
sI2
(dp112
sI3
(dp113
sI4
(dp114
sI5
(dp115
sI6
(dp116
sI7
(dp117
ssg51
g52
sg53
g52
sg54
(dp118
I0
(dp119
I2
(dp120
sI4
(dp121
sI6
(dp122
ssI1
(dp123
I2
(dp124
ssI2
(dp125
I0
g120
sI1
g124
sI4
(dp126
sI5
(dp127
sI6
(dp128
ssI3
(dp129
I5
(dp130
sI7
(dp131
ssI4
(dp132
I0
g121
sI2
g126
sI7
(dp133
ssI5
(dp134
I2
g127
sI3
g130
sI6
(dp135
sI7
(dp136
ssI6
(dp137
I0
g122
sI2
g128
sI5
g135
ssI7
(dp138
I3
g131
sI4
g133
sI5
g136
sssg37
(dp139
sg75
g52
sg76
g118
sbsg77
S'/home/mickael/Documents/projects/examination-scheduling/booth/plots/'
p140
sg79
(dp141
I0
(dp142
I0
g82
sI1
g82
sI2
g82
sI3
g82
sI4
g82
sI5
g82
sI6
g82
sI7
g82
ssI1
(dp143
I0
g82
sI1
g36
sI2
g82
sI3
g82
sI4
g82
sI5
g82
sI6
g82
sI7
g82
ssI2
(dp144
I0
g36
sI1
g36
sI2
g82
sI3
g82
sI4
g82
sI5
g82
sI6
g82
sI7
g82
ssI3
(dp145
I0
g36
sI1
g36
sI2
g82
sI3
g82
sI4
g82
sI5
g82
sI6
g35
sI7
g82
ssI4
(dp146
I0
g36
sI1
g36
sI2
g82
sI3
g82
sI4
g35
sI5
g82
sI6
g35
sI7
g82
ssI5
(dp147
I0
g36
sI1
g36
sI2
g82
sI3
g82
sI4
g35
sI5
g36
sI6
g35
sI7
g82
ssI6
(dp148
I0
g36
sI1
g36
sI2
g34
sI3
g82
sI4
g35
sI5
g36
sI6
g35
sI7
g82
ssI7
(dp149
I0
g36
sI1
g36
sI2
g34
sI3
g82
sI4
g35
sI5
g36
sI6
g35
sI7
g34
ssI8
(dp150
I0
g36
sI1
g36
sI2
g34
sI3
g35
sI4
g35
sI5
g36
sI6
g35
sI7
g34
sssbI1
tp151
sI9
(g1
(g2
g3
Ntp152
Rp153
(dp154
g7
(lp155
g9
ag10
ag11
ag12
ag13
ag14
ag15
ag16
ag17
ag18
aS'10'
p156
aS'11'
p157
aS'12'
p158
aS'13'
p159
aS'14'
p160
aS'15'
p161
aS'16'
p162
aS'17'
p163
aS'18'
p164
aS'19'
p165
asg29
g30
sg31
I01
sg32
(dp166
I0
g35
sI1
g35
sI2
g36
sI3
g35
sI4
g34
sI5
g36
sI6
g36
sI7
g34
sI8
g36
ssg37
g1
(g38
g3
Ntp167
Rp168
(dp169
g42
(dp170
I0
(dp171
sI1
(dp172
sI2
(dp173
sI3
(dp174
sI4
(dp175
sI5
(dp176
sI6
(dp177
sI7
(dp178
sI8
(dp179
ssg51
g52
sg53
g52
sg54
(dp180
I0
(dp181
I8
(dp182
sI2
(dp183
sI4
(dp184
sI6
(dp185
sI7
(dp186
ssI1
(dp187
I6
(dp188
ssI2
(dp189
I0
g183
sI4
(dp190
sI7
(dp191
ssI3
(dp192
I8
(dp193
sI5
(dp194
sI6
(dp195
sI7
(dp196
ssI4
(dp197
I0
g184
sI8
(dp198
sI2
g190
sI6
(dp199
ssI5
(dp200
I3
g194
ssI6
(dp201
I0
g185
sI1
g188
sI3
g195
sI4
g199
ssI7
(dp202
I0
g186
sI2
g191
sI3
g196
ssI8
(dp203
I0
g182
sI3
g193
sI4
g198
sssg37
(dp204
sg75
g52
sg76
g180
sbsg77
S'/home/mickael/Documents/projects/examination-scheduling/booth/plots/'
p205
sg79
(dp206
I0
(dp207
I0
g82
sI1
g82
sI2
g82
sI3
g82
sI4
g82
sI5
g82
sI6
g82
sI7
g82
sI8
g82
ssI1
(dp208
I0
g82
sI1
g82
sI2
g82
sI3
g82
sI4
g82
sI5
g82
sI6
g36
sI7
g82
sI8
g82
ssI2
(dp209
I0
g82
sI1
g82
sI2
g36
sI3
g82
sI4
g82
sI5
g82
sI6
g36
sI7
g82
sI8
g82
ssI3
(dp210
I0
g35
sI1
g82
sI2
g36
sI3
g82
sI4
g82
sI5
g82
sI6
g36
sI7
g82
sI8
g82
ssI4
(dp211
I0
g35
sI1
g82
sI2
g36
sI3
g82
sI4
g82
sI5
g82
sI6
g36
sI7
g82
sI8
g36
ssI5
(dp212
I0
g35
sI1
g82
sI2
g36
sI3
g35
sI4
g82
sI5
g82
sI6
g36
sI7
g82
sI8
g36
ssI6
(dp213
I0
g35
sI1
g82
sI2
g36
sI3
g35
sI4
g34
sI5
g82
sI6
g36
sI7
g82
sI8
g36
ssI7
(dp214
I0
g35
sI1
g82
sI2
g36
sI3
g35
sI4
g34
sI5
g82
sI6
g36
sI7
g34
sI8
g36
ssI8
(dp215
I0
g35
sI1
g35
sI2
g36
sI3
g35
sI4
g34
sI5
g82
sI6
g36
sI7
g34
sI8
g36
ssI9
(dp216
I0
g35
sI1
g35
sI2
g36
sI3
g35
sI4
g34
sI5
g36
sI6
g36
sI7
g34
sI8
g36
sssbI1
tp217
sI10
(g1
(g2
g3
Ntp218
Rp219
(dp220
g7
(lp221
g9
ag10
ag11
ag12
ag13
ag14
ag15
ag16
ag17
ag18
aS'10'
p222
aS'11'
p223
aS'12'
p224
aS'13'
p225
aS'14'
p226
aS'15'
p227
aS'16'
p228
aS'17'
p229
aS'18'
p230
aS'19'
p231
asg29
g30
sg31
I01
sg32
(dp232
I0
g36
sI1
g36
sI2
g34
sI3
g35
sI4
g36
sI5
g34
sI6
g36
sI7
g35
sI8
g36
sI9
g35
ssg37
g1
(g38
g3
Ntp233
Rp234
(dp235
g42
(dp236
I0
(dp237
sI1
(dp238
sI2
(dp239
sI3
(dp240
sI4
(dp241
sI5
(dp242
sI6
(dp243
sI7
(dp244
sI8
(dp245
sI9
(dp246
ssg51
g52
sg53
g52
sg54
(dp247
I0
(dp248
I9
(dp249
sI5
(dp250
sI7
(dp251
ssI1
(dp252
I9
(dp253
sI5
(dp254
ssI2
(dp255
I8
(dp256
sI3
(dp257
sI7
(dp258
ssI3
(dp259
I8
(dp260
sI2
g257
sI5
(dp261
sI6
(dp262
ssI4
(dp263
I5
(dp264
sI7
(dp265
ssI5
(dp266
I0
g250
sI1
g254
sI3
g261
sI4
g264
sI8
(dp267
ssI6
(dp268
I3
g262
ssI7
(dp269
I0
g251
sI8
(dp270
sI2
g258
sI4
g265
ssI8
(dp271
I2
g256
sI3
g260
sI5
g267
sI7
g270
ssI9
(dp272
I0
g249
sI1
g253
sssg37
(dp273
sg75
g52
sg76
g247
sbsg77
S'/home/mickael/Documents/projects/examination-scheduling/booth/plots/'
p274
sg79
(dp275
I0
(dp276
I0
g82
sI1
g82
sI2
g82
sI3
g82
sI4
g82
sI5
g82
sI6
g82
sI7
g82
sI8
g82
sI9
g82
ssI1
(dp277
I0
g82
sI1
g82
sI2
g82
sI3
g82
sI4
g82
sI5
g82
sI6
g82
sI7
g82
sI8
g36
sI9
g82
ssI2
(dp278
I0
g82
sI1
g82
sI2
g82
sI3
g82
sI4
g82
sI5
g82
sI6
g82
sI7
g35
sI8
g36
sI9
g82
ssI3
(dp279
I0
g36
sI1
g82
sI2
g82
sI3
g82
sI4
g82
sI5
g82
sI6
g82
sI7
g35
sI8
g36
sI9
g82
ssI4
(dp280
I0
g36
sI1
g82
sI2
g82
sI3
g82
sI4
g82
sI5
g82
sI6
g82
sI7
g35
sI8
g36
sI9
g35
ssI5
(dp281
I0
g36
sI1
g82
sI2
g82
sI3
g82
sI4
g82
sI5
g82
sI6
g36
sI7
g35
sI8
g36
sI9
g35
ssI6
(dp282
I0
g36
sI1
g82
sI2
g82
sI3
g35
sI4
g82
sI5
g82
sI6
g36
sI7
g35
sI8
g36
sI9
g35
ssI7
(dp283
I0
g36
sI1
g82
sI2
g34
sI3
g35
sI4
g82
sI5
g82
sI6
g36
sI7
g35
sI8
g36
sI9
g35
ssI8
(dp284
I0
g36
sI1
g36
sI2
g34
sI3
g35
sI4
g82
sI5
g82
sI6
g36
sI7
g35
sI8
g36
sI9
g35
ssI9
(dp285
I0
g36
sI1
g36
sI2
g34
sI3
g35
sI4
g36
sI5
g82
sI6
g36
sI7
g35
sI8
g36
sI9
g35
ssI10
(dp286
I0
g36
sI1
g36
sI2
g34
sI3
g35
sI4
g36
sI5
g34
sI6
g36
sI7
g35
sI8
g36
sI9
g35
sssbI1
tp287
sI11
(g1
(g2
g3
Ntp288
Rp289
(dp290
g7
(lp291
g9
ag10
ag11
ag12
ag13
ag14
ag15
ag16
ag17
ag18
aS'10'
p292
aS'11'
p293
aS'12'
p294
aS'13'
p295
aS'14'
p296
aS'15'
p297
aS'16'
p298
aS'17'
p299
aS'18'
p300
aS'19'
p301
asg29
g30
sg31
I01
sg32
(dp302
I0
g34
sI1
g36
sI2
g34
sI3
g35
sI4
g36
sI5
g34
sI6
g36
sI7
g35
sI8
g34
sI9
g35
sI10
g35
ssg37
g1
(g38
g3
Ntp303
Rp304
(dp305
g42
(dp306
I0
(dp307
sI1
(dp308
sI2
(dp309
sI3
(dp310
sI4
(dp311
sI5
(dp312
sI6
(dp313
sI7
(dp314
sI8
(dp315
sI9
(dp316
sI10
(dp317
ssg51
g52
sg53
g52
sg54
(dp318
I0
(dp319
I9
(dp320
sI3
(dp321
sI6
(dp322
sI7
(dp323
ssI1
(dp324
I8
(dp325
sI2
(dp326
sI10
(dp327
sI7
(dp328
ssI2
(dp329
I1
g326
sI10
(dp330
sI9
(dp331
sI6
(dp332
sI7
(dp333
ssI3
(dp334
I0
g321
sI4
(dp335
sI6
(dp336
ssI4
(dp337
I8
(dp338
sI3
g335
sI5
(dp339
ssI5
(dp340
I10
(dp341
sI4
g339
sI6
(dp342
ssI6
(dp343
I0
g322
sI2
g332
sI3
g336
sI5
g342
sI9
(dp344
sI10
(dp345
ssI7
(dp346
I0
g323
sI1
g328
sI2
g333
sI8
(dp347
ssI8
(dp348
I1
g325
sI10
(dp349
sI4
g338
sI7
g347
ssI9
(dp350
I0
g320
sI2
g331
sI6
g344
ssI10
(dp351
I8
g349
sI1
g327
sI2
g330
sI5
g341
sI6
g345
sssg37
(dp352
sg75
g52
sg76
g318
sbsg77
S'/home/mickael/Documents/projects/examination-scheduling/booth/plots/'
p353
sg79
(dp354
I0
(dp355
I0
g82
sI1
g82
sI2
g82
sI3
g82
sI4
g82
sI5
g82
sI6
g82
sI7
g82
sI8
g82
sI9
g82
sI10
g82
ssI1
(dp356
I0
g82
sI1
g36
sI2
g82
sI3
g82
sI4
g82
sI5
g82
sI6
g82
sI7
g82
sI8
g82
sI9
g82
sI10
g82
ssI2
(dp357
I0
g82
sI1
g36
sI2
g82
sI3
g82
sI4
g36
sI5
g82
sI6
g82
sI7
g82
sI8
g82
sI9
g82
sI10
g82
ssI3
(dp358
I0
g82
sI1
g36
sI2
g82
sI3
g35
sI4
g36
sI5
g82
sI6
g82
sI7
g82
sI8
g82
sI9
g82
sI10
g82
ssI4
(dp359
I0
g82
sI1
g36
sI2
g82
sI3
g35
sI4
g36
sI5
g82
sI6
g82
sI7
g35
sI8
g82
sI9
g82
sI10
g82
ssI5
(dp360
I0
g82
sI1
g36
sI2
g82
sI3
g35
sI4
g36
sI5
g82
sI6
g36
sI7
g35
sI8
g82
sI9
g82
sI10
g82
ssI6
(dp361
I0
g82
sI1
g36
sI2
g82
sI3
g35
sI4
g36
sI5
g82
sI6
g36
sI7
g35
sI8
g82
sI9
g82
sI10
g35
ssI7
(dp362
I0
g82
sI1
g36
sI2
g34
sI3
g35
sI4
g36
sI5
g82
sI6
g36
sI7
g35
sI8
g82
sI9
g82
sI10
g35
ssI8
(dp363
I0
g82
sI1
g36
sI2
g34
sI3
g35
sI4
g36
sI5
g82
sI6
g36
sI7
g35
sI8
g82
sI9
g35
sI10
g35
ssI9
(dp364
I0
g34
sI1
g36
sI2
g34
sI3
g35
sI4
g36
sI5
g82
sI6
g36
sI7
g35
sI8
g82
sI9
g35
sI10
g35
ssI10
(dp365
I0
g34
sI1
g36
sI2
g34
sI3
g35
sI4
g36
sI5
g34
sI6
g36
sI7
g35
sI8
g82
sI9
g35
sI10
g35
ssI11
(dp366
I0
g34
sI1
g36
sI2
g34
sI3
g35
sI4
g36
sI5
g34
sI6
g36
sI7
g35
sI8
g34
sI9
g35
sI10
g35
sssbI1
tp367
sI12
(g1
(g2
g3
Ntp368
Rp369
(dp370
g7
(lp371
g9
ag10
ag11
ag12
ag13
ag14
ag15
ag16
ag17
ag18
aS'10'
p372
aS'11'
p373
aS'12'
p374
aS'13'
p375
aS'14'
p376
aS'15'
p377
aS'16'
p378
aS'17'
p379
aS'18'
p380
aS'19'
p381
asg29
g30
sg31
I01
sg32
(dp382
I0
g35
sI1
g36
sI2
g34
sI3
g35
sI4
g35
sI5
g34
sI6
g36
sI7
g36
sI8
g35
sI9
g36
sI10
g36
sI11
g34
ssg37
g1
(g38
g3
Ntp383
Rp384
(dp385
g42
(dp386
I0
(dp387
sI1
(dp388
sI2
(dp389
sI3
(dp390
sI4
(dp391
sI5
(dp392
sI6
(dp393
sI7
(dp394
sI8
(dp395
sI9
(dp396
sI10
(dp397
sI11
(dp398
ssg51
g52
sg53
g52
sg54
(dp399
I0
(dp400
I11
(dp401
sI2
(dp402
sI10
(dp403
sI5
(dp404
ssI1
(dp405
I2
(dp406
sI3
(dp407
sI5
(dp408
ssI2
(dp409
I0
g402
sI1
g406
sI3
(dp410
sI4
(dp411
sI6
(dp412
sI7
(dp413
sI8
(dp414
sI9
(dp415
ssI3
(dp416
I1
g407
sI2
g410
sI11
(dp417
sI6
(dp418
ssI4
(dp419
I2
g411
sI10
(dp420
sI7
(dp421
ssI5
(dp422
I0
g404
sI1
g408
sI10
(dp423
sI9
(dp424
ssI6
(dp425
I8
(dp426
sI11
(dp427
sI2
g412
sI3
g418
ssI7
(dp428
I8
(dp429
sI2
g413
sI4
g421
ssI8
(dp430
I2
g414
sI6
g426
sI7
g429
ssI9
(dp431
I2
g415
sI5
g424
ssI10
(dp432
I0
g403
sI4
g420
sI5
g423
ssI11
(dp433
I0
g401
sI3
g417
sI6
g427
sssg37
(dp434
sg75
g52
sg76
g399
sbsg77
S'/home/mickael/Documents/projects/examination-scheduling/booth/plots/'
p435
sg79
(dp436
I0
(dp437
I0
g82
sI1
g82
sI2
g82
sI3
g82
sI4
g82
sI5
g82
sI6
g82
sI7
g82
sI8
g82
sI9
g82
sI10
g82
sI11
g82
ssI1
(dp438
I0
g82
sI1
g82
sI2
g82
sI3
g82
sI4
g82
sI5
g82
sI6
g82
sI7
g82
sI8
g82
sI9
g82
sI10
g36
sI11
g82
ssI2
(dp439
I0
g35
sI1
g82
sI2
g82
sI3
g82
sI4
g82
sI5
g82
sI6
g82
sI7
g82
sI8
g82
sI9
g82
sI10
g36
sI11
g82
ssI3
(dp440
I0
g35
sI1
g82
sI2
g82
sI3
g82
sI4
g82
sI5
g82
sI6
g36
sI7
g82
sI8
g82
sI9
g82
sI10
g36
sI11
g82
ssI4
(dp441
I0
g35
sI1
g82
sI2
g82
sI3
g35
sI4
g82
sI5
g82
sI6
g36
sI7
g82
sI8
g82
sI9
g82
sI10
g36
sI11
g82
ssI5
(dp442
I0
g35
sI1
g82
sI2
g82
sI3
g35
sI4
g82
sI5
g82
sI6
g36
sI7
g82
sI8
g35
sI9
g82
sI10
g36
sI11
g82
ssI6
(dp443
I0
g35
sI1
g82
sI2
g82
sI3
g35
sI4
g82
sI5
g82
sI6
g36
sI7
g82
sI8
g35
sI9
g36
sI10
g36
sI11
g82
ssI7
(dp444
I0
g35
sI1
g82
sI2
g82
sI3
g35
sI4
g35
sI5
g82
sI6
g36
sI7
g82
sI8
g35
sI9
g36
sI10
g36
sI11
g82
ssI8
(dp445
I0
g35
sI1
g82
sI2
g82
sI3
g35
sI4
g35
sI5
g82
sI6
g36
sI7
g36
sI8
g35
sI9
g36
sI10
g36
sI11
g82
ssI9
(dp446
I0
g35
sI1
g82
sI2
g34
sI3
g35
sI4
g35
sI5
g82
sI6
g36
sI7
g36
sI8
g35
sI9
g36
sI10
g36
sI11
g82
ssI10
(dp447
I0
g35
sI1
g36
sI2
g34
sI3
g35
sI4
g35
sI5
g82
sI6
g36
sI7
g36
sI8
g35
sI9
g36
sI10
g36
sI11
g82
ssI11
(dp448
I0
g35
sI1
g36
sI2
g34
sI3
g35
sI4
g35
sI5
g34
sI6
g36
sI7
g36
sI8
g35
sI9
g36
sI10
g36
sI11
g82
ssI12
(dp449
I0
g35
sI1
g36
sI2
g34
sI3
g35
sI4
g35
sI5
g34
sI6
g36
sI7
g36
sI8
g35
sI9
g36
sI10
g36
sI11
g34
sssbI1
tp450
sI13
(g1
(g2
g3
Ntp451
Rp452
(dp453
g7
(lp454
g9
ag10
ag11
ag12
ag13
ag14
ag15
ag16
ag17
ag18
aS'10'
p455
aS'11'
p456
aS'12'
p457
aS'13'
p458
aS'14'
p459
aS'15'
p460
aS'16'
p461
aS'17'
p462
aS'18'
p463
aS'19'
p464
asg29
g30
sg31
I01
sg32
(dp465
I0
g34
sI1
g35
sI2
g36
sI3
g36
sI4
g34
sI5
g36
sI6
g34
sI7
g36
sI8
g34
sI9
g35
sI10
g34
sI11
g35
sI12
g36
ssg37
g1
(g38
g3
Ntp466
Rp467
(dp468
g42
(dp469
I0
(dp470
sI1
(dp471
sI2
(dp472
sI3
(dp473
sI4
(dp474
sI5
(dp475
sI6
(dp476
sI7
(dp477
sI8
(dp478
sI9
(dp479
sI10
(dp480
sI11
(dp481
sI12
(dp482
ssg51
g52
sg53
g52
sg54
(dp483
I0
(dp484
I1
(dp485
sI3
(dp486
sI12
(dp487
ssI1
(dp488
I0
g485
sI3
(dp489
sI4
(dp490
sI7
(dp491
ssI2
(dp492
sI3
(dp493
I0
g486
sI1
g489
sI8
(dp494
sI9
(dp495
sI10
(dp496
sI11
(dp497
ssI4
(dp498
I1
g490
sI9
(dp499
sI5
(dp500
sI7
(dp501
ssI5
(dp502
I8
(dp503
sI11
(dp504
sI4
g500
ssI6
(dp505
I11
(dp506
sI7
(dp507
ssI7
(dp508
I1
g491
sI4
g501
sI6
g507
ssI8
(dp509
I11
(dp510
sI3
g494
sI5
g503
ssI9
(dp511
I3
g495
sI4
g499
ssI10
(dp512
I11
(dp513
sI3
g496
sI12
(dp514
ssI11
(dp515
I8
g510
sI10
g513
sI3
g497
sI5
g504
sI6
g506
ssI12
(dp516
I0
g487
sI10
g514
sssg37
(dp517
sg75
g52
sg76
g483
sbsg77
S'/home/mickael/Documents/projects/examination-scheduling/booth/plots/'
p518
sg79
(dp519
I0
(dp520
I0
g82
sI1
g82
sI2
g82
sI3
g82
sI4
g82
sI5
g82
sI6
g82
sI7
g82
sI8
g82
sI9
g82
sI10
g82
sI11
g82
sI12
g82
ssI1
(dp521
I0
g82
sI1
g82
sI2
g82
sI3
g36
sI4
g82
sI5
g82
sI6
g82
sI7
g82
sI8
g82
sI9
g82
sI10
g82
sI11
g82
sI12
g82
ssI2
(dp522
I0
g82
sI1
g82
sI2
g82
sI3
g36
sI4
g82
sI5
g82
sI6
g82
sI7
g82
sI8
g82
sI9
g82
sI10
g82
sI11
g35
sI12
g82
ssI3
(dp523
I0
g82
sI1
g82
sI2
g82
sI3
g36
sI4
g82
sI5
g82
sI6
g82
sI7
g36
sI8
g82
sI9
g82
sI10
g82
sI11
g35
sI12
g82
ssI4
(dp524
I0
g82
sI1
g35
sI2
g82
sI3
g36
sI4
g82
sI5
g82
sI6
g82
sI7
g36
sI8
g82
sI9
g82
sI10
g82
sI11
g35
sI12
g82
ssI5
(dp525
I0
g82
sI1
g35
sI2
g82
sI3
g36
sI4
g34
sI5
g82
sI6
g82
sI7
g36
sI8
g82
sI9
g82
sI10
g82
sI11
g35
sI12
g82
ssI6
(dp526
I0
g82
sI1
g35
sI2
g82
sI3
g36
sI4
g34
sI5
g82
sI6
g34
sI7
g36
sI8
g82
sI9
g82
sI10
g82
sI11
g35
sI12
g82
ssI7
(dp527
I0
g82
sI1
g35
sI2
g82
sI3
g36
sI4
g34
sI5
g82
sI6
g34
sI7
g36
sI8
g82
sI9
g35
sI10
g82
sI11
g35
sI12
g82
ssI8
(dp528
I0
g82
sI1
g35
sI2
g82
sI3
g36
sI4
g34
sI5
g82
sI6
g34
sI7
g36
sI8
g82
sI9
g35
sI10
g34
sI11
g35
sI12
g82
ssI9
(dp529
I0
g34
sI1
g35
sI2
g82
sI3
g36
sI4
g34
sI5
g82
sI6
g34
sI7
g36
sI8
g82
sI9
g35
sI10
g34
sI11
g35
sI12
g82
ssI10
(dp530
I0
g34
sI1
g35
sI2
g82
sI3
g36
sI4
g34
sI5
g82
sI6
g34
sI7
g36
sI8
g34
sI9
g35
sI10
g34
sI11
g35
sI12
g82
ssI11
(dp531
I0
g34
sI1
g35
sI2
g82
sI3
g36
sI4
g34
sI5
g82
sI6
g34
sI7
g36
sI8
g34
sI9
g35
sI10
g34
sI11
g35
sI12
g36
ssI12
(dp532
I0
g34
sI1
g35
sI2
g82
sI3
g36
sI4
g34
sI5
g36
sI6
g34
sI7
g36
sI8
g34
sI9
g35
sI10
g34
sI11
g35
sI12
g36
ssI13
(dp533
I0
g34
sI1
g35
sI2
g36
sI3
g36
sI4
g34
sI5
g36
sI6
g34
sI7
g36
sI8
g34
sI9
g35
sI10
g34
sI11
g35
sI12
g36
sssbI1
tp534
sI14
(g1
(g2
g3
Ntp535
Rp536
(dp537
g7
(lp538
g9
ag10
ag11
ag12
ag13
ag14
ag15
ag16
ag17
ag18
aS'10'
p539
aS'11'
p540
aS'12'
p541
aS'13'
p542
aS'14'
p543
aS'15'
p544
aS'16'
p545
aS'17'
p546
aS'18'
p547
aS'19'
p548
asg29
g30
sg31
I01
sg32
(dp549
I0
g35
sI1
g34
sI2
g36
sI3
g34
sI4
g36
sI5
g35
sI6
g35
sI7
g36
sI8
g36
sI9
g36
sI10
g36
sI11
g34
sI12
g35
sI13
g34
ssg37
g1
(g38
g3
Ntp550
Rp551
(dp552
g42
(dp553
I0
(dp554
sI1
(dp555
sI2
(dp556
sI3
(dp557
sI4
(dp558
sI5
(dp559
sI6
(dp560
sI7
(dp561
sI8
(dp562
sI9
(dp563
sI10
(dp564
sI11
(dp565
sI12
(dp566
sI13
(dp567
ssg51
g52
sg53
g52
sg54
(dp568
I0
(dp569
I1
(dp570
sI3
(dp571
sI4
(dp572
sI9
(dp573
ssI1
(dp574
I0
g570
sI2
(dp575
sI7
(dp576
ssI2
(dp577
I1
g575
sI3
(dp578
ssI3
(dp579
I0
g571
sI2
g578
sI4
(dp580
sI5
(dp581
sI7
(dp582
sI8
(dp583
sI9
(dp584
sI12
(dp585
ssI4
(dp586
I0
g572
sI11
(dp587
sI3
g580
sI5
(dp588
ssI5
(dp589
I8
(dp590
sI10
(dp591
sI3
g581
sI4
g588
sI7
(dp592
ssI6
(dp593
I11
(dp594
sI7
(dp595
ssI7
(dp596
I11
(dp597
sI1
g576
sI3
g582
sI5
g592
sI6
g595
ssI8
(dp598
I3
g583
sI5
g590
ssI9
(dp599
I0
g573
sI3
g584
sI12
(dp600
sI13
(dp601
ssI10
(dp602
I5
g591
ssI11
(dp603
I12
(dp604
sI4
g587
sI6
g594
sI7
g597
ssI12
(dp605
I11
g604
sI9
g600
sI3
g585
sI13
(dp606
ssI13
(dp607
I9
g601
sI12
g606
sssg37
(dp608
sg75
g52
sg76
g568
sbsg77
S'/home/mickael/Documents/projects/examination-scheduling/booth/plots/'
p609
sg79
(dp610
I0
(dp611
I0
g82
sI1
g82
sI2
g82
sI3
g82
sI4
g82
sI5
g82
sI6
g82
sI7
g82
sI8
g82
sI9
g82
sI10
g82
sI11
g82
sI12
g82
sI13
g82
ssI1
(dp612
I0
g82
sI1
g82
sI2
g82
sI3
g82
sI4
g82
sI5
g82
sI6
g82
sI7
g82
sI8
g82
sI9
g36
sI10
g82
sI11
g82
sI12
g82
sI13
g82
ssI2
(dp613
I0
g82
sI1
g82
sI2
g82
sI3
g82
sI4
g36
sI5
g82
sI6
g82
sI7
g82
sI8
g82
sI9
g36
sI10
g82
sI11
g82
sI12
g82
sI13
g82
ssI3
(dp614
I0
g82
sI1
g82
sI2
g82
sI3
g82
sI4
g36
sI5
g82
sI6
g82
sI7
g82
sI8
g82
sI9
g36
sI10
g82
sI11
g82
sI12
g35
sI13
g82
ssI4
(dp615
I0
g35
sI1
g82
sI2
g82
sI3
g82
sI4
g36
sI5
g82
sI6
g82
sI7
g82
sI8
g82
sI9
g36
sI10
g82
sI11
g82
sI12
g35
sI13
g82
ssI5
(dp616
I0
g35
sI1
g82
sI2
g82
sI3
g82
sI4
g36
sI5
g82
sI6
g82
sI7
g82
sI8
g36
sI9
g36
sI10
g82
sI11
g82
sI12
g35
sI13
g82
ssI6
(dp617
I0
g35
sI1
g82
sI2
g36
sI3
g82
sI4
g36
sI5
g82
sI6
g82
sI7
g82
sI8
g36
sI9
g36
sI10
g82
sI11
g82
sI12
g35
sI13
g82
ssI7
(dp618
I0
g35
sI1
g82
sI2
g36
sI3
g82
sI4
g36
sI5
g82
sI6
g82
sI7
g36
sI8
g36
sI9
g36
sI10
g82
sI11
g82
sI12
g35
sI13
g82
ssI8
(dp619
I0
g35
sI1
g82
sI2
g36
sI3
g34
sI4
g36
sI5
g82
sI6
g82
sI7
g36
sI8
g36
sI9
g36
sI10
g82
sI11
g82
sI12
g35
sI13
g82
ssI9
(dp620
I0
g35
sI1
g34
sI2
g36
sI3
g34
sI4
g36
sI5
g82
sI6
g82
sI7
g36
sI8
g36
sI9
g36
sI10
g82
sI11
g82
sI12
g35
sI13
g82
ssI10
(dp621
I0
g35
sI1
g34
sI2
g36
sI3
g34
sI4
g36
sI5
g82
sI6
g35
sI7
g36
sI8
g36
sI9
g36
sI10
g82
sI11
g82
sI12
g35
sI13
g82
ssI11
(dp622
I0
g35
sI1
g34
sI2
g36
sI3
g34
sI4
g36
sI5
g82
sI6
g35
sI7
g36
sI8
g36
sI9
g36
sI10
g36
sI11
g82
sI12
g35
sI13
g82
ssI12
(dp623
I0
g35
sI1
g34
sI2
g36
sI3
g34
sI4
g36
sI5
g35
sI6
g35
sI7
g36
sI8
g36
sI9
g36
sI10
g36
sI11
g82
sI12
g35
sI13
g82
ssI13
(dp624
I0
g35
sI1
g34
sI2
g36
sI3
g34
sI4
g36
sI5
g35
sI6
g35
sI7
g36
sI8
g36
sI9
g36
sI10
g36
sI11
g34
sI12
g35
sI13
g82
ssI14
(dp625
I0
g35
sI1
g34
sI2
g36
sI3
g34
sI4
g36
sI5
g35
sI6
g35
sI7
g36
sI8
g36
sI9
g36
sI10
g36
sI11
g34
sI12
g35
sI13
g34
sssbI1
tp626
sI15
(g1
(g2
g3
Ntp627
Rp628
(dp629
g7
(lp630
g9
ag10
ag11
ag12
ag13
ag14
ag15
ag16
ag17
ag18
aS'10'
p631
aS'11'
p632
aS'12'
p633
aS'13'
p634
aS'14'
p635
aS'15'
p636
aS'16'
p637
aS'17'
p638
aS'18'
p639
aS'19'
p640
asg29
g30
sg31
I01
sg32
(dp641
I0
g36
sI1
g34
sI2
g35
sI3
g36
sI4
g34
sI5
g34
sI6
g35
sI7
g36
sI8
g35
sI9
g34
sI10
g36
sI11
g34
sI12
g36
sI13
g35
sI14
g35
ssg37
g1
(g38
g3
Ntp642
Rp643
(dp644
g42
(dp645
I0
(dp646
sI1
(dp647
sI2
(dp648
sI3
(dp649
sI4
(dp650
sI5
(dp651
sI6
(dp652
sI7
(dp653
sI8
(dp654
sI9
(dp655
sI10
(dp656
sI11
(dp657
sI12
(dp658
sI13
(dp659
sI14
(dp660
ssg51
g52
sg53
g52
sg54
(dp661
I0
(dp662
I1
(dp663
sI4
(dp664
sI5
(dp665
sI8
(dp666
sI11
(dp667
sI13
(dp668
ssI1
(dp669
I0
g663
sI8
(dp670
sI6
(dp671
sI7
(dp672
ssI2
(dp673
I10
(dp674
sI12
(dp675
sI5
(dp676
ssI3
(dp677
I6
(dp678
ssI4
(dp679
I0
g664
sI8
(dp680
sI12
(dp681
sI7
(dp682
ssI5
(dp683
I0
g665
sI8
(dp684
sI2
g676
sI7
(dp685
ssI6
(dp686
I1
g671
sI3
g678
sI12
(dp687
ssI7
(dp688
I8
(dp689
sI1
g672
sI4
g682
sI5
g685
ssI8
(dp690
I0
g666
sI1
g670
sI4
g680
sI5
g684
sI7
g689
sI9
(dp691
sI11
(dp692
sI12
(dp693
ssI9
(dp694
I8
g691
sI10
(dp695
sI12
(dp696
sI13
(dp697
sI14
(dp698
ssI10
(dp699
I9
g695
sI2
g674
sI11
(dp700
sI13
(dp701
sI14
(dp702
ssI11
(dp703
I0
g667
sI8
g692
sI10
g700
sI13
(dp704
ssI12
(dp705
I8
g693
sI9
g696
sI2
g675
sI4
g681
sI6
g687
ssI13
(dp706
I0
g668
sI9
g697
sI10
g701
sI11
g704
ssI14
(dp707
I9
g698
sI10
g702
sssg37
(dp708
sg75
g52
sg76
g661
sbsg77
S'/home/mickael/Documents/projects/examination-scheduling/booth/plots/'
p709
sg79
(dp710
I0
(dp711
I0
g82
sI1
g82
sI2
g82
sI3
g82
sI4
g82
sI5
g82
sI6
g82
sI7
g82
sI8
g82
sI9
g82
sI10
g82
sI11
g82
sI12
g82
sI13
g82
sI14
g82
ssI1
(dp712
I0
g82
sI1
g82
sI2
g82
sI3
g82
sI4
g82
sI5
g82
sI6
g82
sI7
g82
sI8
g82
sI9
g82
sI10
g36
sI11
g82
sI12
g82
sI13
g82
sI14
g82
ssI2
(dp713
I0
g82
sI1
g82
sI2
g82
sI3
g82
sI4
g82
sI5
g82
sI6
g82
sI7
g82
sI8
g82
sI9
g82
sI10
g36
sI11
g82
sI12
g36
sI13
g82
sI14
g82
ssI3
(dp714
I0
g82
sI1
g82
sI2
g82
sI3
g82
sI4
g82
sI5
g82
sI6
g82
sI7
g82
sI8
g82
sI9
g82
sI10
g36
sI11
g82
sI12
g36
sI13
g82
sI14
g35
ssI4
(dp715
I0
g82
sI1
g82
sI2
g82
sI3
g36
sI4
g82
sI5
g82
sI6
g82
sI7
g82
sI8
g82
sI9
g82
sI10
g36
sI11
g82
sI12
g36
sI13
g82
sI14
g35
ssI5
(dp716
I0
g36
sI1
g82
sI2
g82
sI3
g36
sI4
g82
sI5
g82
sI6
g82
sI7
g82
sI8
g82
sI9
g82
sI10
g36
sI11
g82
sI12
g36
sI13
g82
sI14
g35
ssI6
(dp717
I0
g36
sI1
g82
sI2
g82
sI3
g36
sI4
g82
sI5
g82
sI6
g82
sI7
g82
sI8
g35
sI9
g82
sI10
g36
sI11
g82
sI12
g36
sI13
g82
sI14
g35
ssI7
(dp718
I0
g36
sI1
g82
sI2
g35
sI3
g36
sI4
g82
sI5
g82
sI6
g82
sI7
g82
sI8
g35
sI9
g82
sI10
g36
sI11
g82
sI12
g36
sI13
g82
sI14
g35
ssI8
(dp719
I0
g36
sI1
g82
sI2
g35
sI3
g36
sI4
g82
sI5
g82
sI6
g82
sI7
g82
sI8
g35
sI9
g82
sI10
g36
sI11
g34
sI12
g36
sI13
g82
sI14
g35
ssI9
(dp720
I0
g36
sI1
g34
sI2
g35
sI3
g36
sI4
g82
sI5
g82
sI6
g82
sI7
g82
sI8
g35
sI9
g82
sI10
g36
sI11
g34
sI12
g36
sI13
g82
sI14
g35
ssI10
(dp721
I0
g36
sI1
g34
sI2
g35
sI3
g36
sI4
g82
sI5
g34
sI6
g82
sI7
g82
sI8
g35
sI9
g82
sI10
g36
sI11
g34
sI12
g36
sI13
g82
sI14
g35
ssI11
(dp722
I0
g36
sI1
g34
sI2
g35
sI3
g36
sI4
g82
sI5
g34
sI6
g82
sI7
g82
sI8
g35
sI9
g34
sI10
g36
sI11
g34
sI12
g36
sI13
g82
sI14
g35
ssI12
(dp723
I0
g36
sI1
g34
sI2
g35
sI3
g36
sI4
g82
sI5
g34
sI6
g82
sI7
g82
sI8
g35
sI9
g34
sI10
g36
sI11
g34
sI12
g36
sI13
g35
sI14
g35
ssI13
(dp724
I0
g36
sI1
g34
sI2
g35
sI3
g36
sI4
g82
sI5
g34
sI6
g82
sI7
g36
sI8
g35
sI9
g34
sI10
g36
sI11
g34
sI12
g36
sI13
g35
sI14
g35
ssI14
(dp725
I0
g36
sI1
g34
sI2
g35
sI3
g36
sI4
g82
sI5
g34
sI6
g35
sI7
g36
sI8
g35
sI9
g34
sI10
g36
sI11
g34
sI12
g36
sI13
g35
sI14
g35
ssI15
(dp726
I0
g36
sI1
g34
sI2
g35
sI3
g36
sI4
g34
sI5
g34
sI6
g35
sI7
g36
sI8
g35
sI9
g34
sI10
g36
sI11
g34
sI12
g36
sI13
g35
sI14
g35
sssbI1
tp727
sI16
(g1
(g2
g3
Ntp728
Rp729
(dp730
g7
(lp731
g9
ag10
ag11
ag12
ag13
ag14
ag15
ag16
ag17
ag18
aS'10'
p732
aS'11'
p733
aS'12'
p734
aS'13'
p735
aS'14'
p736
aS'15'
p737
aS'16'
p738
aS'17'
p739
aS'18'
p740
aS'19'
p741
asg29
g30
sg31
I01
sg32
(dp742
I0
g36
sI1
g34
sI2
g36
sI3
g36
sI4
g36
sI5
g34
sI6
g35
sI7
g35
sI8
g36
sI9
g34
sI10
g34
sI11
g35
sI12
g36
sI13
g35
sI14
g35
sI15
g35
ssg37
g1
(g38
g3
Ntp743
Rp744
(dp745
g42
(dp746
I0
(dp747
sI1
(dp748
sI2
(dp749
sI3
(dp750
sI4
(dp751
sI5
(dp752
sI6
(dp753
sI7
(dp754
sI8
(dp755
sI9
(dp756
sI10
(dp757
sI11
(dp758
sI12
(dp759
sI13
(dp760
sI14
(dp761
sI15
(dp762
ssg51
g52
sg53
g52
sg54
(dp763
I0
(dp764
I10
(dp765
sI11
(dp766
sI5
(dp767
sI6
(dp768
ssI1
(dp769
I2
(dp770
sI3
(dp771
sI13
(dp772
sI14
(dp773
sI7
(dp774
ssI2
(dp775
I1
g770
sI10
(dp776
sI7
(dp777
ssI3
(dp778
I1
g771
sI7
(dp779
sI9
(dp780
sI11
(dp781
sI14
(dp782
sI15
(dp783
ssI4
(dp784
I10
(dp785
sI13
(dp786
sI6
(dp787
sI15
(dp788
ssI5
(dp789
I0
g767
sI11
(dp790
sI14
(dp791
sI6
(dp792
sI7
(dp793
ssI6
(dp794
I0
g768
sI9
(dp795
sI4
g787
sI5
g792
ssI7
(dp796
I1
g774
sI2
g777
sI3
g779
sI5
g793
ssI8
(dp797
I13
(dp798
ssI9
(dp799
I11
(dp800
sI3
g780
sI6
g795
sI15
(dp801
ssI10
(dp802
I0
g765
sI12
(dp803
sI2
g776
sI11
(dp804
sI4
g785
ssI11
(dp805
I0
g766
sI9
g800
sI10
g804
sI3
g781
sI5
g790
ssI12
(dp806
I10
g803
sI13
(dp807
sI15
(dp808
ssI13
(dp809
I8
g798
sI1
g772
sI4
g786
sI12
g807
ssI14
(dp810
I1
g773
sI3
g782
sI5
g791
ssI15
(dp811
I9
g801
sI3
g783
sI4
g788
sI12
g808
sssg37
(dp812
sg75
g52
sg76
g763
sbsg77
S'/home/mickael/Documents/projects/examination-scheduling/booth/plots/'
p813
sg79
(dp814
I0
(dp815
I0
g82
sI1
g82
sI2
g82
sI3
g82
sI4
g82
sI5
g82
sI6
g82
sI7
g82
sI8
g82
sI9
g82
sI10
g82
sI11
g82
sI12
g82
sI13
g82
sI14
g82
sI15
g82
ssI1
(dp816
I0
g82
sI1
g82
sI2
g82
sI3
g82
sI4
g82
sI5
g82
sI6
g82
sI7
g82
sI8
g36
sI9
g82
sI10
g82
sI11
g82
sI12
g82
sI13
g82
sI14
g82
sI15
g82
ssI2
(dp817
I0
g82
sI1
g82
sI2
g82
sI3
g36
sI4
g82
sI5
g82
sI6
g82
sI7
g82
sI8
g36
sI9
g82
sI10
g82
sI11
g82
sI12
g82
sI13
g82
sI14
g82
sI15
g82
ssI3
(dp818
I0
g82
sI1
g82
sI2
g82
sI3
g36
sI4
g82
sI5
g82
sI6
g82
sI7
g82
sI8
g36
sI9
g82
sI10
g82
sI11
g35
sI12
g82
sI13
g82
sI14
g82
sI15
g82
ssI4
(dp819
I0
g36
sI1
g82
sI2
g82
sI3
g36
sI4
g82
sI5
g82
sI6
g82
sI7
g82
sI8
g36
sI9
g82
sI10
g82
sI11
g35
sI12
g82
sI13
g82
sI14
g82
sI15
g82
ssI5
(dp820
I0
g36
sI1
g82
sI2
g82
sI3
g36
sI4
g82
sI5
g82
sI6
g35
sI7
g82
sI8
g36
sI9
g82
sI10
g82
sI11
g35
sI12
g82
sI13
g82
sI14
g82
sI15
g82
ssI6
(dp821
I0
g36
sI1
g82
sI2
g82
sI3
g36
sI4
g82
sI5
g82
sI6
g35
sI7
g82
sI8
g36
sI9
g82
sI10
g82
sI11
g35
sI12
g36
sI13
g82
sI14
g82
sI15
g82
ssI7
(dp822
I0
g36
sI1
g82
sI2
g82
sI3
g36
sI4
g82
sI5
g82
sI6
g35
sI7
g82
sI8
g36
sI9
g82
sI10
g82
sI11
g35
sI12
g36
sI13
g82
sI14
g35
sI15
g82
ssI8
(dp823
I0
g36
sI1
g82
sI2
g82
sI3
g36
sI4
g82
sI5
g82
sI6
g35
sI7
g35
sI8
g36
sI9
g82
sI10
g82
sI11
g35
sI12
g36
sI13
g82
sI14
g35
sI15
g82
ssI9
(dp824
I0
g36
sI1
g82
sI2
g82
sI3
g36
sI4
g36
sI5
g82
sI6
g35
sI7
g35
sI8
g36
sI9
g82
sI10
g82
sI11
g35
sI12
g36
sI13
g82
sI14
g35
sI15
g82
ssI10
(dp825
I0
g36
sI1
g34
sI2
g82
sI3
g36
sI4
g36
sI5
g82
sI6
g35
sI7
g35
sI8
g36
sI9
g82
sI10
g82
sI11
g35
sI12
g36
sI13
g82
sI14
g35
sI15
g82
ssI11
(dp826
I0
g36
sI1
g34
sI2
g82
sI3
g36
sI4
g36
sI5
g82
sI6
g35
sI7
g35
sI8
g36
sI9
g82
sI10
g82
sI11
g35
sI12
g36
sI13
g35
sI14
g35
sI15
g82
ssI12
(dp827
I0
g36
sI1
g34
sI2
g82
sI3
g36
sI4
g36
sI5
g82
sI6
g35
sI7
g35
sI8
g36
sI9
g34
sI10
g82
sI11
g35
sI12
g36
sI13
g35
sI14
g35
sI15
g82
ssI13
(dp828
I0
g36
sI1
g34
sI2
g82
sI3
g36
sI4
g36
sI5
g82
sI6
g35
sI7
g35
sI8
g36
sI9
g34
sI10
g34
sI11
g35
sI12
g36
sI13
g35
sI14
g35
sI15
g82
ssI14
(dp829
I0
g36
sI1
g34
sI2
g82
sI3
g36
sI4
g36
sI5
g34
sI6
g35
sI7
g35
sI8
g36
sI9
g34
sI10
g34
sI11
g35
sI12
g36
sI13
g35
sI14
g35
sI15
g82
ssI15
(dp830
I0
g36
sI1
g34
sI2
g82
sI3
g36
sI4
g36
sI5
g34
sI6
g35
sI7
g35
sI8
g36
sI9
g34
sI10
g34
sI11
g35
sI12
g36
sI13
g35
sI14
g35
sI15
g35
ssI16
(dp831
I0
g36
sI1
g34
sI2
g36
sI3
g36
sI4
g36
sI5
g34
sI6
g35
sI7
g35
sI8
g36
sI9
g34
sI10
g34
sI11
g35
sI12
g36
sI13
g35
sI14
g35
sI15
g35
sssbI1
tp832
sI17
(g1
(g2
g3
Ntp833
Rp834
(dp835
g7
(lp836
g9
ag10
ag11
ag12
ag13
ag14
ag15
ag16
ag17
ag18
aS'10'
p837
aS'11'
p838
aS'12'
p839
aS'13'
p840
aS'14'
p841
aS'15'
p842
aS'16'
p843
aS'17'
p844
aS'18'
p845
aS'19'
p846
asg29
g30
sg31
I01
sg32
(dp847
I0
g34
sI1
g34
sI2
S'purple'
p848
sI3
g34
sI4
g35
sI5
g36
sI6
g34
sI7
g36
sI8
g848
sI9
g35
sI10
g36
sI11
g34
sI12
g34
sI13
g35
sI14
g35
sI15
g35
sI16
g36
ssg37
g1
(g38
g3
Ntp849
Rp850
(dp851
g42
(dp852
I0
(dp853
sI1
(dp854
sI2
(dp855
sI3
(dp856
sI4
(dp857
sI5
(dp858
sI6
(dp859
sI7
(dp860
sI8
(dp861
sI9
(dp862
sI10
(dp863
sI11
(dp864
sI12
(dp865
sI13
(dp866
sI14
(dp867
sI15
(dp868
sI16
(dp869
ssg51
g52
sg53
g52
sg54
(dp870
I0
(dp871
I9
(dp872
sI10
(dp873
sI4
(dp874
ssI1
(dp875
I10
(dp876
sI13
(dp877
sI14
(dp878
sI15
(dp879
ssI2
(dp880
I16
(dp881
sI9
(dp882
sI3
(dp883
sI14
(dp884
sI6
(dp885
ssI3
(dp886
I16
(dp887
sI2
g883
sI4
(dp888
sI10
(dp889
sI14
(dp890
ssI4
(dp891
I0
g874
sI3
g888
sI5
(dp892
sI8
(dp893
sI10
(dp894
sI11
(dp895
sI12
(dp896
sI16
(dp897
ssI5
(dp898
I8
(dp899
sI4
g892
sI6
(dp900
sI15
(dp901
ssI6
(dp902
I2
g885
sI5
g900
sI8
(dp903
sI9
(dp904
sI14
(dp905
sI15
(dp906
sI16
(dp907
ssI7
(dp908
I9
(dp909
sI12
(dp910
sI14
(dp911
sI15
(dp912
ssI8
(dp913
I4
g893
sI5
g899
sI6
g903
sI9
(dp914
sI11
(dp915
sI13
(dp916
sI15
(dp917
sI16
(dp918
ssI9
(dp919
I0
g872
sI2
g882
sI6
g904
sI7
g909
sI8
g914
sI12
(dp920
ssI10
(dp921
I0
g873
sI1
g876
sI3
g889
sI4
g894
sI12
(dp922
sI14
(dp923
ssI11
(dp924
I8
g915
sI16
(dp925
sI4
g895
ssI12
(dp926
I4
g896
sI7
g910
sI9
g920
sI10
g922
sI13
(dp927
sI14
(dp928
ssI13
(dp929
I8
g916
sI1
g877
sI12
g927
sI16
(dp930
ssI14
(dp931
I1
g878
sI2
g884
sI3
g890
sI6
g905
sI7
g911
sI10
g923
sI12
g928
sI16
(dp932
ssI15
(dp933
I1
g879
sI5
g901
sI6
g906
sI7
g912
sI8
g917
sI16
(dp934
ssI16
(dp935
I2
g881
sI3
g887
sI4
g897
sI6
g907
sI8
g918
sI11
g925
sI13
g930
sI14
g932
sI15
g934
sssg37
(dp936
sg75
g52
sg76
g870
sbsg77
S'/home/mickael/Documents/projects/examination-scheduling/booth/plots/'
p937
sg79
(dp938
I0
(dp939
I0
g82
sI1
g82
sI2
g82
sI3
g82
sI4
g82
sI5
g82
sI6
g82
sI7
g82
sI8
g82
sI9
g82
sI10
g82
sI11
g82
sI12
g82
sI13
g82
sI14
g82
sI15
g82
sI16
g82
ssI1
(dp940
I0
g82
sI1
g82
sI2
g82
sI3
g82
sI4
g82
sI5
g82
sI6
g82
sI7
g82
sI8
g82
sI9
g82
sI10
g36
sI11
g82
sI12
g82
sI13
g82
sI14
g82
sI15
g82
sI16
g82
ssI2
(dp941
I0
g82
sI1
g82
sI2
g82
sI3
g82
sI4
g82
sI5
g82
sI6
g82
sI7
g82
sI8
g82
sI9
g82
sI10
g36
sI11
g82
sI12
g82
sI13
g82
sI14
g35
sI15
g82
sI16
g82
ssI3
(dp942
I0
g82
sI1
g82
sI2
g82
sI3
g82
sI4
g82
sI5
g82
sI6
g82
sI7
g82
sI8
g82
sI9
g82
sI10
g36
sI11
g82
sI12
g82
sI13
g82
sI14
g35
sI15
g82
sI16
g36
ssI4
(dp943
I0
g82
sI1
g82
sI2
g82
sI3
g82
sI4
g82
sI5
g82
sI6
g34
sI7
g82
sI8
g82
sI9
g82
sI10
g36
sI11
g82
sI12
g82
sI13
g82
sI14
g35
sI15
g82
sI16
g36
ssI5
(dp944
I0
g82
sI1
g82
sI2
g82
sI3
g82
sI4
g35
sI5
g82
sI6
g34
sI7
g82
sI8
g82
sI9
g82
sI10
g36
sI11
g82
sI12
g82
sI13
g82
sI14
g35
sI15
g82
sI16
g36
ssI6
(dp945
I0
g82
sI1
g82
sI2
g82
sI3
g82
sI4
g35
sI5
g82
sI6
g34
sI7
g82
sI8
g82
sI9
g82
sI10
g36
sI11
g34
sI12
g82
sI13
g82
sI14
g35
sI15
g82
sI16
g36
ssI7
(dp946
I0
g82
sI1
g82
sI2
g82
sI3
g82
sI4
g35
sI5
g36
sI6
g34
sI7
g82
sI8
g82
sI9
g82
sI10
g36
sI11
g34
sI12
g82
sI13
g82
sI14
g35
sI15
g82
sI16
g36
ssI8
(dp947
I0
g82
sI1
g82
sI2
g82
sI3
g34
sI4
g35
sI5
g36
sI6
g34
sI7
g82
sI8
g82
sI9
g82
sI10
g36
sI11
g34
sI12
g82
sI13
g82
sI14
g35
sI15
g82
sI16
g36
ssI9
(dp948
I0
g82
sI1
g82
sI2
g82
sI3
g34
sI4
g35
sI5
g36
sI6
g34
sI7
g36
sI8
g82
sI9
g82
sI10
g36
sI11
g34
sI12
g82
sI13
g82
sI14
g35
sI15
g82
sI16
g36
ssI10
(dp949
I0
g82
sI1
g82
sI2
g82
sI3
g34
sI4
g35
sI5
g36
sI6
g34
sI7
g36
sI8
g82
sI9
g35
sI10
g36
sI11
g34
sI12
g82
sI13
g82
sI14
g35
sI15
g82
sI16
g36
ssI11
(dp950
I0
g34
sI1
g82
sI2
g82
sI3
g34
sI4
g35
sI5
g36
sI6
g34
sI7
g36
sI8
g82
sI9
g35
sI10
g36
sI11
g34
sI12
g82
sI13
g82
sI14
g35
sI15
g82
sI16
g36
ssI12
(dp951
I0
g34
sI1
g82
sI2
g82
sI3
g34
sI4
g35
sI5
g36
sI6
g34
sI7
g36
sI8
g82
sI9
g35
sI10
g36
sI11
g34
sI12
g82
sI13
g82
sI14
g35
sI15
g35
sI16
g36
ssI13
(dp952
I0
g34
sI1
g82
sI2
g82
sI3
g34
sI4
g35
sI5
g36
sI6
g34
sI7
g36
sI8
g82
sI9
g35
sI10
g36
sI11
g34
sI12
g82
sI13
g35
sI14
g35
sI15
g35
sI16
g36
ssI14
(dp953
I0
g34
sI1
g82
sI2
g82
sI3
g34
sI4
g35
sI5
g36
sI6
g34
sI7
g36
sI8
g848
sI9
g35
sI10
g36
sI11
g34
sI12
g82
sI13
g35
sI14
g35
sI15
g35
sI16
g36
ssI15
(dp954
I0
g34
sI1
g82
sI2
g848
sI3
g34
sI4
g35
sI5
g36
sI6
g34
sI7
g36
sI8
g848
sI9
g35
sI10
g36
sI11
g34
sI12
g82
sI13
g35
sI14
g35
sI15
g35
sI16
g36
ssI16
(dp955
I0
g34
sI1
g34
sI2
g848
sI3
g34
sI4
g35
sI5
g36
sI6
g34
sI7
g36
sI8
g848
sI9
g35
sI10
g36
sI11
g34
sI12
g82
sI13
g35
sI14
g35
sI15
g35
sI16
g36
ssI17
(dp956
I0
g34
sI1
g34
sI2
g848
sI3
g34
sI4
g35
sI5
g36
sI6
g34
sI7
g36
sI8
g848
sI9
g35
sI10
g36
sI11
g34
sI12
g34
sI13
g35
sI14
g35
sI15
g35
sI16
g36
sssbI2
tp957
sI18
(g1
(g2
g3
Ntp958
Rp959
(dp960
g7
(lp961
g9
ag10
ag11
ag12
ag13
ag14
ag15
ag16
ag17
ag18
aS'10'
p962
aS'11'
p963
aS'12'
p964
aS'13'
p965
aS'14'
p966
aS'15'
p967
aS'16'
p968
aS'17'
p969
aS'18'
p970
aS'19'
p971
asg29
g30
sg31
I01
sg32
(dp972
I0
g36
sI1
g34
sI2
g36
sI3
g35
sI4
g36
sI5
g36
sI6
g848
sI7
g36
sI8
g34
sI9
g35
sI10
g35
sI11
g36
sI12
g35
sI13
g35
sI14
g35
sI15
g35
sI16
g34
sI17
g848
ssg37
g1
(g38
g3
Ntp973
Rp974
(dp975
g42
(dp976
I0
(dp977
sI1
(dp978
sI2
(dp979
sI3
(dp980
sI4
(dp981
sI5
(dp982
sI6
(dp983
sI7
(dp984
sI8
(dp985
sI9
(dp986
sI10
(dp987
sI11
(dp988
sI12
(dp989
sI13
(dp990
sI14
(dp991
sI15
(dp992
sI16
(dp993
sI17
(dp994
ssg51
g52
sg53
g52
sg54
(dp995
I0
(dp996
I17
(dp997
sI3
(dp998
ssI1
(dp999
I3
(dp1000
sI4
(dp1001
sI6
(dp1002
sI7
(dp1003
sI11
(dp1004
sI12
(dp1005
sI15
(dp1006
sI17
(dp1007
ssI2
(dp1008
I6
(dp1009
sI8
(dp1010
sI9
(dp1011
sI12
(dp1012
sI15
(dp1013
sI16
(dp1014
sI17
(dp1015
ssI3
(dp1016
I0
g998
sI1
g1000
sI11
(dp1017
ssI4
(dp1018
I16
(dp1019
sI1
g1001
sI12
(dp1020
sI6
(dp1021
sI15
(dp1022
ssI5
(dp1023
I16
(dp1024
sI9
(dp1025
sI13
(dp1026
sI14
(dp1027
sI17
(dp1028
ssI6
(dp1029
I1
g1002
sI2
g1009
sI4
g1021
sI8
(dp1030
sI9
(dp1031
sI11
(dp1032
sI13
(dp1033
sI15
(dp1034
ssI7
(dp1035
I16
(dp1036
sI1
g1003
sI17
(dp1037
sI13
(dp1038
sI15
(dp1039
ssI8
(dp1040
I2
g1010
sI6
g1030
sI9
(dp1041
sI13
(dp1042
sI15
(dp1043
sI17
(dp1044
ssI9
(dp1045
I2
g1011
sI5
g1025
sI6
g1031
sI8
g1041
sI11
(dp1046
sI16
(dp1047
ssI10
(dp1048
I11
(dp1049
ssI11
(dp1050
I1
g1004
sI3
g1017
sI6
g1032
sI9
g1046
sI10
g1049
sI13
(dp1051
sI14
(dp1052
ssI12
(dp1053
I1
g1005
sI2
g1012
sI4
g1020
ssI13
(dp1054
I5
g1026
sI6
g1033
sI7
g1038
sI8
g1042
sI11
g1051
sI17
(dp1055
ssI14
(dp1056
I11
g1052
sI5
g1027
ssI15
(dp1057
I1
g1006
sI2
g1013
sI4
g1022
sI6
g1034
sI7
g1039
sI8
g1043
sI16
(dp1058
ssI16
(dp1059
I2
g1014
sI4
g1019
sI5
g1024
sI7
g1036
sI9
g1047
sI15
g1058
sI17
(dp1060
ssI17
(dp1061
I0
g997
sI1
g1007
sI2
g1015
sI5
g1028
sI7
g1037
sI8
g1044
sI13
g1055
sI16
g1060
sssg37
(dp1062
sg75
g52
sg76
g995
sbsg77
S'/home/mickael/Documents/projects/examination-scheduling/booth/plots/'
p1063
sg79
(dp1064
I0
(dp1065
I0
g82
sI1
g82
sI2
g82
sI3
g82
sI4
g82
sI5
g82
sI6
g82
sI7
g82
sI8
g82
sI9
g82
sI10
g82
sI11
g82
sI12
g82
sI13
g82
sI14
g82
sI15
g82
sI16
g82
sI17
g82
ssI1
(dp1066
I0
g82
sI1
g82
sI2
g82
sI3
g82
sI4
g82
sI5
g82
sI6
g82
sI7
g82
sI8
g82
sI9
g82
sI10
g82
sI11
g36
sI12
g82
sI13
g82
sI14
g82
sI15
g82
sI16
g82
sI17
g82
ssI2
(dp1067
I0
g82
sI1
g82
sI2
g82
sI3
g82
sI4
g82
sI5
g82
sI6
g82
sI7
g82
sI8
g82
sI9
g35
sI10
g82
sI11
g36
sI12
g82
sI13
g82
sI14
g82
sI15
g82
sI16
g82
sI17
g82
ssI3
(dp1068
I0
g82
sI1
g82
sI2
g82
sI3
g82
sI4
g82
sI5
g82
sI6
g82
sI7
g82
sI8
g82
sI9
g35
sI10
g82
sI11
g36
sI12
g82
sI13
g35
sI14
g82
sI15
g82
sI16
g82
sI17
g82
ssI4
(dp1069
I0
g82
sI1
g82
sI2
g82
sI3
g82
sI4
g36
sI5
g82
sI6
g82
sI7
g82
sI8
g82
sI9
g35
sI10
g82
sI11
g36
sI12
g82
sI13
g35
sI14
g82
sI15
g82
sI16
g82
sI17
g82
ssI5
(dp1070
I0
g82
sI1
g82
sI2
g82
sI3
g82
sI4
g36
sI5
g82
sI6
g82
sI7
g82
sI8
g82
sI9
g35
sI10
g35
sI11
g36
sI12
g82
sI13
g35
sI14
g82
sI15
g82
sI16
g82
sI17
g82
ssI6
(dp1071
I0
g82
sI1
g82
sI2
g82
sI3
g82
sI4
g36
sI5
g82
sI6
g82
sI7
g82
sI8
g82
sI9
g35
sI10
g35
sI11
g36
sI12
g82
sI13
g35
sI14
g82
sI15
g82
sI16
g34
sI17
g82
ssI7
(dp1072
I0
g82
sI1
g82
sI2
g82
sI3
g82
sI4
g36
sI5
g82
sI6
g82
sI7
g82
sI8
g82
sI9
g35
sI10
g35
sI11
g36
sI12
g82
sI13
g35
sI14
g82
sI15
g35
sI16
g34
sI17
g82
ssI8
(dp1073
I0
g82
sI1
g82
sI2
g82
sI3
g35
sI4
g36
sI5
g82
sI6
g82
sI7
g82
sI8
g82
sI9
g35
sI10
g35
sI11
g36
sI12
g82
sI13
g35
sI14
g82
sI15
g35
sI16
g34
sI17
g82
ssI9
(dp1074
I0
g82
sI1
g82
sI2
g36
sI3
g35
sI4
g36
sI5
g82
sI6
g82
sI7
g82
sI8
g82
sI9
g35
sI10
g35
sI11
g36
sI12
g82
sI13
g35
sI14
g82
sI15
g35
sI16
g34
sI17
g82
ssI10
(dp1075
I0
g82
sI1
g82
sI2
g36
sI3
g35
sI4
g36
sI5
g82
sI6
g82
sI7
g82
sI8
g34
sI9
g35
sI10
g35
sI11
g36
sI12
g82
sI13
g35
sI14
g82
sI15
g35
sI16
g34
sI17
g82
ssI11
(dp1076
I0
g82
sI1
g82
sI2
g36
sI3
g35
sI4
g36
sI5
g82
sI6
g82
sI7
g82
sI8
g34
sI9
g35
sI10
g35
sI11
g36
sI12
g35
sI13
g35
sI14
g82
sI15
g35
sI16
g34
sI17
g82
ssI12
(dp1077
I0
g82
sI1
g82
sI2
g36
sI3
g35
sI4
g36
sI5
g82
sI6
g82
sI7
g82
sI8
g34
sI9
g35
sI10
g35
sI11
g36
sI12
g35
sI13
g35
sI14
g35
sI15
g35
sI16
g34
sI17
g82
ssI13
(dp1078
I0
g82
sI1
g82
sI2
g36
sI3
g35
sI4
g36
sI5
g82
sI6
g848
sI7
g82
sI8
g34
sI9
g35
sI10
g35
sI11
g36
sI12
g35
sI13
g35
sI14
g35
sI15
g35
sI16
g34
sI17
g82
ssI14
(dp1079
I0
g36
sI1
g82
sI2
g36
sI3
g35
sI4
g36
sI5
g82
sI6
g848
sI7
g82
sI8
g34
sI9
g35
sI10
g35
sI11
g36
sI12
g35
sI13
g35
sI14
g35
sI15
g35
sI16
g34
sI17
g82
ssI15
(dp1080
I0
g36
sI1
g82
sI2
g36
sI3
g35
sI4
g36
sI5
g36
sI6
g848
sI7
g82
sI8
g34
sI9
g35
sI10
g35
sI11
g36
sI12
g35
sI13
g35
sI14
g35
sI15
g35
sI16
g34
sI17
g82
ssI16
(dp1081
I0
g36
sI1
g82
sI2
g36
sI3
g35
sI4
g36
sI5
g36
sI6
g848
sI7
g36
sI8
g34
sI9
g35
sI10
g35
sI11
g36
sI12
g35
sI13
g35
sI14
g35
sI15
g35
sI16
g34
sI17
g82
ssI17
(dp1082
I0
g36
sI1
g82
sI2
g36
sI3
g35
sI4
g36
sI5
g36
sI6
g848
sI7
g36
sI8
g34
sI9
g35
sI10
g35
sI11
g36
sI12
g35
sI13
g35
sI14
g35
sI15
g35
sI16
g34
sI17
g848
ssI18
(dp1083
I0
g36
sI1
g34
sI2
g36
sI3
g35
sI4
g36
sI5
g36
sI6
g848
sI7
g36
sI8
g34
sI9
g35
sI10
g35
sI11
g36
sI12
g35
sI13
g35
sI14
g35
sI15
g35
sI16
g34
sI17
g848
sssbI2
tp1084
sI19
(g1
(g2
g3
Ntp1085
Rp1086
(dp1087
g7
(lp1088
g9
ag10
ag11
ag12
ag13
ag14
ag15
ag16
ag17
ag18
aS'10'
p1089
aS'11'
p1090
aS'12'
p1091
aS'13'
p1092
aS'14'
p1093
aS'15'
p1094
aS'16'
p1095
aS'17'
p1096
aS'18'
p1097
aS'19'
p1098
asg29
g30
sg31
I01
sg32
(dp1099
I0
g36
sI1
g848
sI2
g34
sI3
g35
sI4
g35
sI5
g848
sI6
g36
sI7
g35
sI8
g848
sI9
g848
sI10
g34
sI11
g36
sI12
g36
sI13
g35
sI14
g35
sI15
g36
sI16
g35
sI17
g34
sI18
g36
ssg37
g1
(g38
g3
Ntp1100
Rp1101
(dp1102
g42
(dp1103
I0
(dp1104
sI1
(dp1105
sI2
(dp1106
sI3
(dp1107
sI4
(dp1108
sI5
(dp1109
sI6
(dp1110
sI7
(dp1111
sI8
(dp1112
sI9
(dp1113
sI10
(dp1114
sI11
(dp1115
sI12
(dp1116
sI13
(dp1117
sI14
(dp1118
sI15
(dp1119
sI16
(dp1120
sI17
(dp1121
sI18
(dp1122
ssg51
g52
sg53
g52
sg54
(dp1123
I0
(dp1124
I8
(dp1125
sI9
(dp1126
sI13
(dp1127
sI14
(dp1128
sI16
(dp1129
ssI1
(dp1130
I4
(dp1131
sI10
(dp1132
sI11
(dp1133
sI12
(dp1134
sI13
(dp1135
sI16
(dp1136
sI17
(dp1137
ssI2
(dp1138
I4
(dp1139
sI5
(dp1140
sI8
(dp1141
sI11
(dp1142
sI13
(dp1143
sI14
(dp1144
sI15
(dp1145
sI18
(dp1146
ssI3
(dp1147
I5
(dp1148
sI9
(dp1149
sI10
(dp1150
sI12
(dp1151
sI15
(dp1152
sI17
(dp1153
ssI4
(dp1154
I1
g1131
sI2
g1139
sI12
(dp1155
sI5
(dp1156
ssI5
(dp1157
I2
g1140
sI3
g1148
sI4
g1156
sI6
(dp1158
sI10
(dp1159
sI11
(dp1160
sI12
(dp1161
sI17
(dp1162
ssI6
(dp1163
I16
(dp1164
sI17
(dp1165
sI10
(dp1166
sI5
g1158
sI13
(dp1167
ssI7
(dp1168
I8
(dp1169
sI9
(dp1170
sI12
(dp1171
sI17
(dp1172
ssI8
(dp1173
I0
g1125
sI2
g1141
sI7
g1169
sI11
(dp1174
sI13
(dp1175
sI14
(dp1176
ssI9
(dp1177
I0
g1126
sI3
g1149
sI7
g1170
sI10
(dp1178
sI12
(dp1179
sI18
(dp1180
ssI10
(dp1181
I1
g1132
sI3
g1150
sI5
g1159
sI6
g1166
sI9
g1178
sI11
(dp1182
sI14
(dp1183
ssI11
(dp1184
I1
g1133
sI2
g1142
sI5
g1160
sI8
g1174
sI10
g1182
sI14
(dp1185
ssI12
(dp1186
I1
g1134
sI3
g1151
sI4
g1155
sI5
g1161
sI7
g1171
sI9
g1179
sI16
(dp1187
sI17
(dp1188
ssI13
(dp1189
I0
g1127
sI1
g1135
sI2
g1143
sI6
g1167
sI8
g1175
ssI14
(dp1190
I0
g1128
sI2
g1144
sI8
g1176
sI10
g1183
sI11
g1185
sI15
(dp1191
ssI15
(dp1192
I16
(dp1193
sI17
(dp1194
sI2
g1145
sI3
g1152
sI14
g1191
ssI16
(dp1195
I0
g1129
sI1
g1136
sI12
g1187
sI6
g1164
sI15
g1193
ssI17
(dp1196
I1
g1137
sI3
g1153
sI5
g1162
sI6
g1165
sI7
g1172
sI12
g1188
sI15
g1194
ssI18
(dp1197
I9
g1180
sI2
g1146
sssg37
(dp1198
sg75
g52
sg76
g1123
sbsg77
S'/home/mickael/Documents/projects/examination-scheduling/booth/plots/'
p1199
sg79
(dp1200
I0
(dp1201
I0
g82
sI1
g82
sI2
g82
sI3
g82
sI4
g82
sI5
g82
sI6
g82
sI7
g82
sI8
g82
sI9
g82
sI10
g82
sI11
g82
sI12
g82
sI13
g82
sI14
g82
sI15
g82
sI16
g82
sI17
g82
sI18
g82
ssI1
(dp1202
I0
g82
sI1
g82
sI2
g82
sI3
g82
sI4
g82
sI5
g82
sI6
g82
sI7
g82
sI8
g82
sI9
g82
sI10
g82
sI11
g82
sI12
g36
sI13
g82
sI14
g82
sI15
g82
sI16
g82
sI17
g82
sI18
g82
ssI2
(dp1203
I0
g36
sI1
g82
sI2
g82
sI3
g82
sI4
g82
sI5
g82
sI6
g82
sI7
g82
sI8
g82
sI9
g82
sI10
g82
sI11
g82
sI12
g36
sI13
g82
sI14
g82
sI15
g82
sI16
g82
sI17
g82
sI18
g82
ssI3
(dp1204
I0
g36
sI1
g82
sI2
g82
sI3
g82
sI4
g82
sI5
g82
sI6
g82
sI7
g82
sI8
g82
sI9
g82
sI10
g82
sI11
g82
sI12
g36
sI13
g82
sI14
g82
sI15
g82
sI16
g35
sI17
g82
sI18
g82
ssI4
(dp1205
I0
g36
sI1
g82
sI2
g82
sI3
g82
sI4
g82
sI5
g82
sI6
g36
sI7
g82
sI8
g82
sI9
g82
sI10
g82
sI11
g82
sI12
g36
sI13
g82
sI14
g82
sI15
g82
sI16
g35
sI17
g82
sI18
g82
ssI5
(dp1206
I0
g36
sI1
g82
sI2
g82
sI3
g82
sI4
g82
sI5
g82
sI6
g36
sI7
g82
sI8
g82
sI9
g82
sI10
g82
sI11
g82
sI12
g36
sI13
g82
sI14
g35
sI15
g82
sI16
g35
sI17
g82
sI18
g82
ssI6
(dp1207
I0
g36
sI1
g82
sI2
g82
sI3
g82
sI4
g82
sI5
g82
sI6
g36
sI7
g82
sI8
g82
sI9
g82
sI10
g82
sI11
g82
sI12
g36
sI13
g82
sI14
g35
sI15
g82
sI16
g35
sI17
g82
sI18
g36
ssI7
(dp1208
I0
g36
sI1
g82
sI2
g82
sI3
g82
sI4
g82
sI5
g82
sI6
g36
sI7
g82
sI8
g82
sI9
g82
sI10
g82
sI11
g82
sI12
g36
sI13
g82
sI14
g35
sI15
g36
sI16
g35
sI17
g82
sI18
g36
ssI8
(dp1209
I0
g36
sI1
g82
sI2
g82
sI3
g82
sI4
g82
sI5
g82
sI6
g36
sI7
g35
sI8
g82
sI9
g82
sI10
g82
sI11
g82
sI12
g36
sI13
g82
sI14
g35
sI15
g36
sI16
g35
sI17
g82
sI18
g36
ssI9
(dp1210
I0
g36
sI1
g82
sI2
g34
sI3
g82
sI4
g82
sI5
g82
sI6
g36
sI7
g35
sI8
g82
sI9
g82
sI10
g82
sI11
g82
sI12
g36
sI13
g82
sI14
g35
sI15
g36
sI16
g35
sI17
g82
sI18
g36
ssI10
(dp1211
I0
g36
sI1
g82
sI2
g34
sI3
g35
sI4
g82
sI5
g82
sI6
g36
sI7
g35
sI8
g82
sI9
g82
sI10
g82
sI11
g82
sI12
g36
sI13
g82
sI14
g35
sI15
g36
sI16
g35
sI17
g82
sI18
g36
ssI11
(dp1212
I0
g36
sI1
g82
sI2
g34
sI3
g35
sI4
g82
sI5
g848
sI6
g36
sI7
g35
sI8
g82
sI9
g82
sI10
g82
sI11
g82
sI12
g36
sI13
g82
sI14
g35
sI15
g36
sI16
g35
sI17
g82
sI18
g36
ssI12
(dp1213
I0
g36
sI1
g82
sI2
g34
sI3
g35
sI4
g82
sI5
g848
sI6
g36
sI7
g35
sI8
g82
sI9
g82
sI10
g82
sI11
g82
sI12
g36
sI13
g35
sI14
g35
sI15
g36
sI16
g35
sI17
g82
sI18
g36
ssI13
(dp1214
I0
g36
sI1
g82
sI2
g34
sI3
g35
sI4
g82
sI5
g848
sI6
g36
sI7
g35
sI8
g82
sI9
g82
sI10
g82
sI11
g82
sI12
g36
sI13
g35
sI14
g35
sI15
g36
sI16
g35
sI17
g34
sI18
g36
ssI14
(dp1215
I0
g36
sI1
g82
sI2
g34
sI3
g35
sI4
g82
sI5
g848
sI6
g36
sI7
g35
sI8
g848
sI9
g82
sI10
g82
sI11
g82
sI12
g36
sI13
g35
sI14
g35
sI15
g36
sI16
g35
sI17
g34
sI18
g36
ssI15
(dp1216
I0
g36
sI1
g82
sI2
g34
sI3
g35
sI4
g35
sI5
g848
sI6
g36
sI7
g35
sI8
g848
sI9
g82
sI10
g82
sI11
g82
sI12
g36
sI13
g35
sI14
g35
sI15
g36
sI16
g35
sI17
g34
sI18
g36
ssI16
(dp1217
I0
g36
sI1
g82
sI2
g34
sI3
g35
sI4
g35
sI5
g848
sI6
g36
sI7
g35
sI8
g848
sI9
g82
sI10
g34
sI11
g82
sI12
g36
sI13
g35
sI14
g35
sI15
g36
sI16
g35
sI17
g34
sI18
g36
ssI17
(dp1218
I0
g36
sI1
g82
sI2
g34
sI3
g35
sI4
g35
sI5
g848
sI6
g36
sI7
g35
sI8
g848
sI9
g82
sI10
g34
sI11
g36
sI12
g36
sI13
g35
sI14
g35
sI15
g36
sI16
g35
sI17
g34
sI18
g36
ssI18
(dp1219
I0
g36
sI1
g848
sI2
g34
sI3
g35
sI4
g35
sI5
g848
sI6
g36
sI7
g35
sI8
g848
sI9
g82
sI10
g34
sI11
g36
sI12
g36
sI13
g35
sI14
g35
sI15
g36
sI16
g35
sI17
g34
sI18
g36
ssI19
(dp1220
I0
g36
sI1
g848
sI2
g34
sI3
g35
sI4
g35
sI5
g848
sI6
g36
sI7
g35
sI8
g848
sI9
g848
sI10
g34
sI11
g36
sI12
g36
sI13
g35
sI14
g35
sI15
g36
sI16
g35
sI17
g34
sI18
g36
sssbI1
tp1221
sI20
(g1
(g2
g3
Ntp1222
Rp1223
(dp1224
g7
(lp1225
g9
ag10
ag11
ag12
ag13
ag14
ag15
ag16
ag17
ag18
aS'10'
p1226
aS'11'
p1227
aS'12'
p1228
aS'13'
p1229
aS'14'
p1230
aS'15'
p1231
aS'16'
p1232
aS'17'
p1233
aS'18'
p1234
aS'19'
p1235
asg29
g30
sg31
I01
sg32
(dp1236
I0
g36
sI1
g848
sI2
g34
sI3
g36
sI4
g35
sI5
g35
sI6
g34
sI7
g36
sI8
g34
sI9
g34
sI10
g34
sI11
g848
sI12
g35
sI13
g35
sI14
g36
sI15
g35
sI16
g36
sI17
g848
sI18
g35
sI19
g35
ssg37
g1
(g38
g3
Ntp1237
Rp1238
(dp1239
g42
(dp1240
I0
(dp1241
sI1
(dp1242
sI2
(dp1243
sI3
(dp1244
sI4
(dp1245
sI5
(dp1246
sI6
(dp1247
sI7
(dp1248
sI8
(dp1249
sI9
(dp1250
sI10
(dp1251
sI11
(dp1252
sI12
(dp1253
sI13
(dp1254
sI14
(dp1255
sI15
(dp1256
sI16
(dp1257
sI17
(dp1258
sI18
(dp1259
sI19
(dp1260
ssg51
g52
sg53
g52
sg54
(dp1261
I0
(dp1262
I2
(dp1263
sI19
(dp1264
sI15
(dp1265
ssI1
(dp1266
I2
(dp1267
sI3
(dp1268
sI5
(dp1269
sI7
(dp1270
sI9
(dp1271
sI12
(dp1272
sI13
(dp1273
sI14
(dp1274
sI19
(dp1275
ssI2
(dp1276
I0
g1263
sI1
g1267
sI3
(dp1277
sI5
(dp1278
sI11
(dp1279
sI13
(dp1280
sI16
(dp1281
sI18
(dp1282
ssI3
(dp1283
I1
g1268
sI2
g1277
sI6
(dp1284
sI9
(dp1285
sI11
(dp1286
sI18
(dp1287
ssI4
(dp1288
I8
(dp1289
sI9
(dp1290
sI16
(dp1291
sI17
(dp1292
ssI5
(dp1293
I1
g1269
sI2
g1278
sI7
(dp1294
sI8
(dp1295
sI14
(dp1296
sI16
(dp1297
ssI6
(dp1298
I11
(dp1299
sI16
(dp1300
sI3
g1284
sI19
(dp1301
ssI7
(dp1302
I1
g1270
sI5
g1294
sI9
(dp1303
sI10
(dp1304
sI12
(dp1305
sI17
(dp1306
sI19
(dp1307
ssI8
(dp1308
I4
g1289
sI5
g1295
sI11
(dp1309
sI14
(dp1310
sI15
(dp1311
sI17
(dp1312
ssI9
(dp1313
I1
g1271
sI3
g1285
sI4
g1290
sI7
g1303
sI11
(dp1314
sI15
(dp1315
sI16
(dp1316
sI19
(dp1317
ssI10
(dp1318
I7
g1304
sI12
(dp1319
sI14
(dp1320
sI15
(dp1321
sI18
(dp1322
sI19
(dp1323
ssI11
(dp1324
I2
g1279
sI3
g1286
sI6
g1299
sI8
g1309
sI9
g1314
sI15
(dp1325
sI19
(dp1326
ssI12
(dp1327
I16
(dp1328
sI1
g1272
sI10
g1319
sI7
g1305
ssI13
(dp1329
I1
g1273
sI2
g1280
sI14
(dp1330
ssI14
(dp1331
I8
g1310
sI1
g1274
sI10
g1320
sI5
g1296
sI13
g1330
ssI15
(dp1332
I0
g1265
sI8
g1311
sI10
g1321
sI11
g1325
sI9
g1315
ssI16
(dp1333
I2
g1281
sI4
g1291
sI5
g1297
sI6
g1300
sI9
g1316
sI12
g1328
sI17
(dp1334
sI18
(dp1335
sI19
(dp1336
ssI17
(dp1337
I8
g1312
sI16
g1334
sI18
(dp1338
sI4
g1292
sI7
g1306
ssI18
(dp1339
I16
g1335
sI17
g1338
sI2
g1282
sI3
g1287
sI10
g1322
ssI19
(dp1340
I0
g1264
sI1
g1275
sI6
g1301
sI7
g1307
sI9
g1317
sI10
g1323
sI11
g1326
sI16
g1336
sssg37
(dp1341
sg75
g52
sg76
g1261
sbsg77
S'/home/mickael/Documents/projects/examination-scheduling/booth/plots/'
p1342
sg79
(dp1343
I0
(dp1344
I0
g82
sI1
g82
sI2
g82
sI3
g82
sI4
g82
sI5
g82
sI6
g82
sI7
g82
sI8
g82
sI9
g82
sI10
g82
sI11
g82
sI12
g82
sI13
g82
sI14
g82
sI15
g82
sI16
g82
sI17
g82
sI18
g82
sI19
g82
ssI1
(dp1345
I0
g36
sI1
g82
sI2
g82
sI3
g82
sI4
g82
sI5
g82
sI6
g82
sI7
g82
sI8
g82
sI9
g82
sI10
g82
sI11
g82
sI12
g82
sI13
g82
sI14
g82
sI15
g82
sI16
g82
sI17
g82
sI18
g82
sI19
g82
ssI2
(dp1346
I0
g36
sI1
g82
sI2
g82
sI3
g82
sI4
g82
sI5
g82
sI6
g82
sI7
g82
sI8
g82
sI9
g82
sI10
g82
sI11
g82
sI12
g82
sI13
g82
sI14
g82
sI15
g82
sI16
g36
sI17
g82
sI18
g82
sI19
g82
ssI3
(dp1347
I0
g36
sI1
g82
sI2
g82
sI3
g82
sI4
g82
sI5
g82
sI6
g82
sI7
g82
sI8
g82
sI9
g82
sI10
g82
sI11
g82
sI12
g82
sI13
g82
sI14
g82
sI15
g82
sI16
g36
sI17
g82
sI18
g82
sI19
g35
ssI4
(dp1348
I0
g36
sI1
g82
sI2
g82
sI3
g82
sI4
g82
sI5
g35
sI6
g82
sI7
g82
sI8
g82
sI9
g82
sI10
g82
sI11
g82
sI12
g82
sI13
g82
sI14
g82
sI15
g82
sI16
g36
sI17
g82
sI18
g82
sI19
g35
ssI5
(dp1349
I0
g36
sI1
g82
sI2
g82
sI3
g36
sI4
g82
sI5
g35
sI6
g82
sI7
g82
sI8
g82
sI9
g82
sI10
g82
sI11
g82
sI12
g82
sI13
g82
sI14
g82
sI15
g82
sI16
g36
sI17
g82
sI18
g82
sI19
g35
ssI6
(dp1350
I0
g36
sI1
g82
sI2
g82
sI3
g36
sI4
g82
sI5
g35
sI6
g82
sI7
g82
sI8
g82
sI9
g82
sI10
g82
sI11
g82
sI12
g82
sI13
g82
sI14
g36
sI15
g82
sI16
g36
sI17
g82
sI18
g82
sI19
g35
ssI7
(dp1351
I0
g36
sI1
g82
sI2
g82
sI3
g36
sI4
g82
sI5
g35
sI6
g82
sI7
g82
sI8
g82
sI9
g82
sI10
g34
sI11
g82
sI12
g82
sI13
g82
sI14
g36
sI15
g82
sI16
g36
sI17
g82
sI18
g82
sI19
g35
ssI8
(dp1352
I0
g36
sI1
g82
sI2
g82
sI3
g36
sI4
g35
sI5
g35
sI6
g82
sI7
g82
sI8
g82
sI9
g82
sI10
g34
sI11
g82
sI12
g82
sI13
g82
sI14
g36
sI15
g82
sI16
g36
sI17
g82
sI18
g82
sI19
g35
ssI9
(dp1353
I0
g36
sI1
g82
sI2
g82
sI3
g36
sI4
g35
sI5
g35
sI6
g82
sI7
g82
sI8
g82
sI9
g82
sI10
g34
sI11
g82
sI12
g82
sI13
g82
sI14
g36
sI15
g82
sI16
g36
sI17
g82
sI18
g35
sI19
g35
ssI10
(dp1354
I0
g36
sI1
g82
sI2
g82
sI3
g36
sI4
g35
sI5
g35
sI6
g34
sI7
g82
sI8
g82
sI9
g82
sI10
g34
sI11
g82
sI12
g82
sI13
g82
sI14
g36
sI15
g82
sI16
g36
sI17
g82
sI18
g35
sI19
g35
ssI11
(dp1355
I0
g36
sI1
g82
sI2
g82
sI3
g36
sI4
g35
sI5
g35
sI6
g34
sI7
g82
sI8
g34
sI9
g82
sI10
g34
sI11
g82
sI12
g82
sI13
g82
sI14
g36
sI15
g82
sI16
g36
sI17
g82
sI18
g35
sI19
g35
ssI12
(dp1356
I0
g36
sI1
g82
sI2
g82
sI3
g36
sI4
g35
sI5
g35
sI6
g34
sI7
g82
sI8
g34
sI9
g82
sI10
g34
sI11
g82
sI12
g82
sI13
g35
sI14
g36
sI15
g82
sI16
g36
sI17
g82
sI18
g35
sI19
g35
ssI13
(dp1357
I0
g36
sI1
g82
sI2
g34
sI3
g36
sI4
g35
sI5
g35
sI6
g34
sI7
g82
sI8
g34
sI9
g82
sI10
g34
sI11
g82
sI12
g82
sI13
g35
sI14
g36
sI15
g82
sI16
g36
sI17
g82
sI18
g35
sI19
g35
ssI14
(dp1358
I0
g36
sI1
g82
sI2
g34
sI3
g36
sI4
g35
sI5
g35
sI6
g34
sI7
g82
sI8
g34
sI9
g82
sI10
g34
sI11
g82
sI12
g82
sI13
g35
sI14
g36
sI15
g82
sI16
g36
sI17
g848
sI18
g35
sI19
g35
ssI15
(dp1359
I0
g36
sI1
g82
sI2
g34
sI3
g36
sI4
g35
sI5
g35
sI6
g34
sI7
g82
sI8
g34
sI9
g82
sI10
g34
sI11
g82
sI12
g35
sI13
g35
sI14
g36
sI15
g82
sI16
g36
sI17
g848
sI18
g35
sI19
g35
ssI16
(dp1360
I0
g36
sI1
g82
sI2
g34
sI3
g36
sI4
g35
sI5
g35
sI6
g34
sI7
g82
sI8
g34
sI9
g82
sI10
g34
sI11
g848
sI12
g35
sI13
g35
sI14
g36
sI15
g82
sI16
g36
sI17
g848
sI18
g35
sI19
g35
ssI17
(dp1361
I0
g36
sI1
g82
sI2
g34
sI3
g36
sI4
g35
sI5
g35
sI6
g34
sI7
g82
sI8
g34
sI9
g82
sI10
g34
sI11
g848
sI12
g35
sI13
g35
sI14
g36
sI15
g35
sI16
g36
sI17
g848
sI18
g35
sI19
g35
ssI18
(dp1362
I0
g36
sI1
g82
sI2
g34
sI3
g36
sI4
g35
sI5
g35
sI6
g34
sI7
g82
sI8
g34
sI9
g34
sI10
g34
sI11
g848
sI12
g35
sI13
g35
sI14
g36
sI15
g35
sI16
g36
sI17
g848
sI18
g35
sI19
g35
ssI19
(dp1363
I0
g36
sI1
g82
sI2
g34
sI3
g36
sI4
g35
sI5
g35
sI6
g34
sI7
g36
sI8
g34
sI9
g34
sI10
g34
sI11
g848
sI12
g35
sI13
g35
sI14
g36
sI15
g35
sI16
g36
sI17
g848
sI18
g35
sI19
g35
ssI20
(dp1364
I0
g36
sI1
g848
sI2
g34
sI3
g36
sI4
g35
sI5
g35
sI6
g34
sI7
g36
sI8
g34
sI9
g34
sI10
g34
sI11
g848
sI12
g35
sI13
g35
sI14
g36
sI15
g35
sI16
g36
sI17
g848
sI18
g35
sI19
g35
sssbI1
tp1365
s.