(dp0
I6
(ccopy_reg
_reconstructor
p1
(c__main__
ColorGraph
p2
c__builtin__
object
p3
Ntp4
Rp5
(dp6
S'ALL_COLOURS'
p7
(lp8
S'0'
p9
aS'1'
p10
aS'2'
p11
aS'3'
p12
aS'4'
p13
aS'5'
p14
aS'6'
p15
aS'7'
p16
aS'8'
p17
aS'9'
p18
aS'10'
p19
aS'11'
p20
aS'12'
p21
aS'13'
p22
aS'14'
p23
aS'15'
p24
aS'16'
p25
aS'17'
p26
aS'18'
p27
aS'19'
p28
asS'plotname'
p29
S'graphcolouring'
p30
sS'revert'
p31
I01
sS'colours'
p32
(dp33
I0
S'blue'
p34
sI1
S'red'
p35
sI2
S'yellow'
p36
sI3
g36
sI4
g34
sI5
g35
ssS'graph'
p37
g1
(cnetworkx.classes.graph
Graph
p38
g3
Ntp39
Rp40
(dp41
S'node'
p42
(dp43
I0
(dp44
sI1
(dp45
sI2
(dp46
sI3
(dp47
sI4
(dp48
sI5
(dp49
ssS'node_dict_factory'
p50
c__builtin__
dict
p51
sS'edge_attr_dict_factory'
p52
g51
sS'edge'
p53
(dp54
I0
(dp55
I1
(dp56
sI2
(dp57
sI5
(dp58
ssI1
(dp59
I0
g56
sI3
(dp60
sI4
(dp61
ssI2
(dp62
I0
g57
sI4
(dp63
sI5
(dp64
ssI3
(dp65
I1
g60
sI4
(dp66
sI5
(dp67
ssI4
(dp68
I1
g61
sI2
g63
sI3
g66
ssI5
(dp69
I0
g58
sI2
g64
sI3
g67
sssg37
(dp70
sS'adjlist_dict_factory'
p71
g51
sS'adj'
p72
g54
sbsS'DIRECTORY'
p73
S'plots/'
p74
sbI1
tp75
sI9
(g1
(g2
g3
Ntp76
Rp77
(dp78
g7
(lp79
g9
ag10
ag11
ag12
ag13
ag14
ag15
ag16
ag17
ag18
aS'10'
p80
aS'11'
p81
aS'12'
p82
aS'13'
p83
aS'14'
p84
aS'15'
p85
aS'16'
p86
aS'17'
p87
aS'18'
p88
aS'19'
p89
asg29
g30
sg31
I01
sg32
(dp90
I0
g36
sI1
g34
sI2
g35
sI3
g35
sI4
g34
sI5
g34
sI6
g36
sI7
g35
sI8
S'purple'
p91
ssg37
g1
(g38
g3
Ntp92
Rp93
(dp94
g42
(dp95
I0
(dp96
sI1
(dp97
sI2
(dp98
sI3
(dp99
sI4
(dp100
sI5
(dp101
sI6
(dp102
sI7
(dp103
sI8
(dp104
ssg50
g51
sg52
g51
sg53
(dp105
I0
(dp106
I8
(dp107
sI1
(dp108
sI2
(dp109
sI3
(dp110
sI4
(dp111
ssI1
(dp112
I0
g108
sI8
(dp113
sI6
(dp114
sI7
(dp115
ssI2
(dp116
I0
g109
sI8
(dp117
sI4
(dp118
ssI3
(dp119
I0
g110
sI8
(dp120
sI4
(dp121
sI5
(dp122
sI6
(dp123
ssI4
(dp124
I0
g111
sI8
(dp125
sI2
g118
sI3
g121
sI7
(dp126
ssI5
(dp127
I3
g122
ssI6
(dp128
I8
(dp129
sI1
g114
sI3
g123
sI7
(dp130
ssI7
(dp131
I8
(dp132
sI1
g115
sI4
g126
sI6
g130
ssI8
(dp133
I0
g107
sI1
g113
sI2
g117
sI3
g120
sI4
g125
sI6
g129
sI7
g132
sssg37
(dp134
sg71
g51
sg72
g105
sbsg73
g74
sbI1
tp135
sI10
(g1
(g2
g3
Ntp136
Rp137
(dp138
g7
(lp139
g9
ag10
ag11
ag12
ag13
ag14
ag15
ag16
ag17
ag18
aS'10'
p140
aS'11'
p141
aS'12'
p142
aS'13'
p143
aS'14'
p144
aS'15'
p145
aS'16'
p146
aS'17'
p147
aS'18'
p148
aS'19'
p149
asg29
g30
sg31
I01
sg32
(dp150
I0
g36
sI1
g35
sI2
g34
sI3
g34
sI4
g35
sI5
g36
sI6
g36
sI7
g34
sI8
g34
sI9
g91
ssg37
g1
(g38
g3
Ntp151
Rp152
(dp153
g42
(dp154
I0
(dp155
sI1
(dp156
sI2
(dp157
sI3
(dp158
sI4
(dp159
sI5
(dp160
sI6
(dp161
sI7
(dp162
sI8
(dp163
sI9
(dp164
ssg50
g51
sg52
g51
sg53
(dp165
I0
(dp166
I8
(dp167
sI9
(dp168
sI2
(dp169
sI4
(dp170
sI7
(dp171
ssI1
(dp172
I8
(dp173
sI2
(dp174
sI5
(dp175
sI6
(dp176
sI7
(dp177
ssI2
(dp178
I0
g169
sI1
g174
sI4
(dp179
sI9
(dp180
ssI3
(dp181
I9
(dp182
sI4
(dp183
ssI4
(dp184
I0
g170
sI2
g179
sI3
g183
sI5
(dp185
sI6
(dp186
sI8
(dp187
sI9
(dp188
ssI5
(dp189
I8
(dp190
sI1
g175
sI4
g185
sI7
(dp191
ssI6
(dp192
I8
(dp193
sI1
g176
sI4
g186
sI9
(dp194
sI7
(dp195
ssI7
(dp196
I0
g171
sI1
g177
sI5
g191
sI6
g195
sI9
(dp197
ssI8
(dp198
I0
g167
sI1
g173
sI4
g187
sI5
g190
sI6
g193
ssI9
(dp199
I0
g168
sI2
g180
sI3
g182
sI4
g188
sI6
g194
sI7
g197
sssg37
(dp200
sg71
g51
sg72
g165
sbsg73
g74
sbI1
tp201
sI11
(g1
(g2
g3
Ntp202
Rp203
(dp204
g7
(lp205
g9
ag10
ag11
ag12
ag13
ag14
ag15
ag16
ag17
ag18
aS'10'
p206
aS'11'
p207
aS'12'
p208
aS'13'
p209
aS'14'
p210
aS'15'
p211
aS'16'
p212
aS'17'
p213
aS'18'
p214
aS'19'
p215
asg29
g30
sg31
I01
sg32
(dp216
I0
g35
sI1
g34
sI2
g35
sI3
g34
sI4
g34
sI5
g35
sI6
g34
sI7
g35
sI8
g36
sI9
g34
sI10
g36
ssg37
g1
(g38
g3
Ntp217
Rp218
(dp219
g42
(dp220
I0
(dp221
sI1
(dp222
sI2
(dp223
sI3
(dp224
sI4
(dp225
sI5
(dp226
sI6
(dp227
sI7
(dp228
sI8
(dp229
sI9
(dp230
sI10
(dp231
ssg50
g51
sg52
g51
sg53
(dp232
I0
(dp233
I6
(dp234
ssI1
(dp235
I2
(dp236
sI10
(dp237
ssI2
(dp238
I8
(dp239
sI1
g236
sI3
(dp240
sI4
(dp241
sI9
(dp242
ssI3
(dp243
I2
g240
ssI4
(dp244
I8
(dp245
sI2
g241
sI10
(dp246
sI7
(dp247
ssI5
(dp248
I8
(dp249
sI9
(dp250
sI10
(dp251
sI6
(dp252
ssI6
(dp253
I0
g234
sI5
g252
ssI7
(dp254
I8
(dp255
sI9
(dp256
sI10
(dp257
sI4
g247
ssI8
(dp258
I2
g239
sI4
g245
sI5
g249
sI7
g255
ssI9
(dp259
I2
g242
sI10
(dp260
sI5
g250
sI7
g256
ssI10
(dp261
I1
g237
sI9
g260
sI4
g246
sI5
g251
sI7
g257
sssg37
(dp262
sg71
g51
sg72
g232
sbsg73
g74
sbI1
tp263
sI12
(g1
(g2
g3
Ntp264
Rp265
(dp266
g7
(lp267
g9
ag10
ag11
ag12
ag13
ag14
ag15
ag16
ag17
ag18
aS'10'
p268
aS'11'
p269
aS'12'
p270
aS'13'
p271
aS'14'
p272
aS'15'
p273
aS'16'
p274
aS'17'
p275
aS'18'
p276
aS'19'
p277
asg29
g30
sg31
I01
sg32
(dp278
I0
g34
sI1
g35
sI2
g35
sI3
g91
sI4
g34
sI5
g36
sI6
g36
sI7
g36
sI8
g34
sI9
g91
sI10
g35
sI11
g34
ssg37
g1
(g38
g3
Ntp279
Rp280
(dp281
g42
(dp282
I0
(dp283
sI1
(dp284
sI2
(dp285
sI3
(dp286
sI4
(dp287
sI5
(dp288
sI6
(dp289
sI7
(dp290
sI8
(dp291
sI9
(dp292
sI10
(dp293
sI11
(dp294
ssg50
g51
sg52
g51
sg53
(dp295
I0
(dp296
I9
(dp297
sI2
(dp298
sI3
(dp299
sI5
(dp300
sI7
(dp301
ssI1
(dp302
I8
(dp303
sI9
(dp304
sI4
(dp305
sI6
(dp306
sI7
(dp307
ssI2
(dp308
I0
g298
sI4
(dp309
sI5
(dp310
sI6
(dp311
sI7
(dp312
sI8
(dp313
sI11
(dp314
ssI3
(dp315
I0
g299
sI10
(dp316
sI4
(dp317
sI5
(dp318
sI7
(dp319
ssI4
(dp320
I1
g305
sI2
g309
sI3
g317
sI5
(dp321
sI6
(dp322
sI10
(dp323
ssI5
(dp324
I0
g300
sI2
g310
sI3
g318
sI4
g321
sI9
(dp325
sI10
(dp326
ssI6
(dp327
I1
g306
sI2
g311
sI4
g322
sI9
(dp328
ssI7
(dp329
I0
g301
sI1
g307
sI2
g312
sI3
g319
sI8
(dp330
ssI8
(dp331
I1
g303
sI2
g313
sI7
g330
ssI9
(dp332
I0
g297
sI1
g304
sI10
(dp333
sI5
g325
sI6
g328
ssI10
(dp334
I11
(dp335
sI9
g333
sI3
g316
sI4
g323
sI5
g326
ssI11
(dp336
I2
g314
sI10
g335
sssg37
(dp337
sg71
g51
sg72
g295
sbsg73
g74
sbI1
tp338
sI13
(g1
(g2
g3
Ntp339
Rp340
(dp341
g7
(lp342
g9
ag10
ag11
ag12
ag13
ag14
ag15
ag16
ag17
ag18
aS'10'
p343
aS'11'
p344
aS'12'
p345
aS'13'
p346
aS'14'
p347
aS'15'
p348
aS'16'
p349
aS'17'
p350
aS'18'
p351
aS'19'
p352
asg29
g30
sg31
I01
sg32
(dp353
I0
g91
sI1
g91
sI2
g36
sI3
g35
sI4
g36
sI5
g35
sI6
g34
sI7
g35
sI8
g36
sI9
g91
sI10
g36
sI11
g34
sI12
g34
ssg37
g1
(g38
g3
Ntp354
Rp355
(dp356
g42
(dp357
I0
(dp358
sI1
(dp359
sI2
(dp360
sI3
(dp361
sI4
(dp362
sI5
(dp363
sI6
(dp364
sI7
(dp365
sI8
(dp366
sI9
(dp367
sI10
(dp368
sI11
(dp369
sI12
(dp370
ssg50
g51
sg52
g51
sg53
(dp371
I0
(dp372
I3
(dp373
sI5
(dp374
sI7
(dp375
sI8
(dp376
sI10
(dp377
sI11
(dp378
sI12
(dp379
ssI1
(dp380
I2
(dp381
sI3
(dp382
sI4
(dp383
sI5
(dp384
sI6
(dp385
sI8
(dp386
sI11
(dp387
ssI2
(dp388
I1
g381
sI3
(dp389
sI5
(dp390
sI6
(dp391
sI7
(dp392
sI9
(dp393
sI12
(dp394
ssI3
(dp395
I0
g373
sI1
g382
sI2
g389
sI4
(dp396
sI8
(dp397
sI10
(dp398
sI11
(dp399
sI12
(dp400
ssI4
(dp401
I1
g383
sI3
g396
sI5
(dp402
sI6
(dp403
sI7
(dp404
sI11
(dp405
ssI5
(dp406
I0
g374
sI1
g384
sI2
g390
sI4
g402
sI6
(dp407
sI9
(dp408
sI10
(dp409
sI12
(dp410
ssI6
(dp411
I1
g385
sI2
g391
sI4
g403
sI5
g407
sI9
(dp412
sI10
(dp413
ssI7
(dp414
I0
g375
sI2
g392
sI4
g404
sI8
(dp415
sI9
(dp416
sI10
(dp417
sI11
(dp418
sI12
(dp419
ssI8
(dp420
I0
g376
sI1
g386
sI3
g397
sI7
g415
sI9
(dp421
sI12
(dp422
ssI9
(dp423
I2
g393
sI5
g408
sI6
g412
sI7
g416
sI8
g421
sI12
(dp424
ssI10
(dp425
I0
g377
sI3
g398
sI5
g409
sI6
g413
sI7
g417
sI12
(dp426
ssI11
(dp427
I0
g378
sI1
g387
sI3
g399
sI4
g405
sI7
g418
ssI12
(dp428
I0
g379
sI2
g394
sI3
g400
sI5
g410
sI7
g419
sI8
g422
sI9
g424
sI10
g426
sssg37
(dp429
sg71
g51
sg72
g371
sbsg73
g74
sbI1
tp430
sI14
(g1
(g2
g3
Ntp431
Rp432
(dp433
g7
(lp434
g9
ag10
ag11
ag12
ag13
ag14
ag15
ag16
ag17
ag18
aS'10'
p435
aS'11'
p436
aS'12'
p437
aS'13'
p438
aS'14'
p439
aS'15'
p440
aS'16'
p441
aS'17'
p442
aS'18'
p443
aS'19'
p444
asg29
g30
sg31
I01
sg32
(dp445
I0
g34
sI1
g91
sI2
g91
sI3
g34
sI4
g35
sI5
g35
sI6
g35
sI7
g36
sI8
g34
sI9
g36
sI10
g36
sI11
g36
sI12
g34
sI13
g35
ssg37
g1
(g38
g3
Ntp446
Rp447
(dp448
g42
(dp449
I0
(dp450
sI1
(dp451
sI2
(dp452
sI3
(dp453
sI4
(dp454
sI5
(dp455
sI6
(dp456
sI7
(dp457
sI8
(dp458
sI9
(dp459
sI10
(dp460
sI11
(dp461
sI12
(dp462
sI13
(dp463
ssg50
g51
sg52
g51
sg53
(dp464
I0
(dp465
I1
(dp466
sI10
(dp467
sI4
(dp468
sI6
(dp469
ssI1
(dp470
I0
g466
sI3
(dp471
sI4
(dp472
sI6
(dp473
sI9
(dp474
sI11
(dp475
ssI2
(dp476
I8
(dp477
sI11
(dp478
sI3
(dp479
sI4
(dp480
sI5
(dp481
ssI3
(dp482
I1
g471
sI2
g479
sI4
(dp483
sI5
(dp484
sI6
(dp485
sI7
(dp486
sI9
(dp487
sI10
(dp488
sI11
(dp489
ssI4
(dp490
I0
g468
sI1
g472
sI2
g480
sI3
g483
sI10
(dp491
ssI5
(dp492
I2
g481
sI3
g484
sI7
(dp493
sI8
(dp494
sI9
(dp495
sI11
(dp496
ssI6
(dp497
I0
g469
sI1
g473
sI10
(dp498
sI3
g485
sI11
(dp499
ssI7
(dp500
I3
g486
sI5
g493
ssI8
(dp501
I2
g477
sI10
(dp502
sI5
g494
sI13
(dp503
ssI9
(dp504
I1
g474
sI3
g487
sI5
g495
ssI10
(dp505
I0
g467
sI3
g488
sI4
g491
sI6
g498
sI8
g502
sI12
(dp506
ssI11
(dp507
I1
g475
sI2
g478
sI3
g489
sI5
g496
sI6
g499
sI12
(dp508
ssI12
(dp509
I10
g506
sI11
g508
sI13
(dp510
ssI13
(dp511
I8
g503
sI12
g510
sssg37
(dp512
sg71
g51
sg72
g464
sbsg73
g74
sbI1
tp513
sI15
(g1
(g2
g3
Ntp514
Rp515
(dp516
g7
(lp517
g9
ag10
ag11
ag12
ag13
ag14
ag15
ag16
ag17
ag18
aS'10'
p518
aS'11'
p519
aS'12'
p520
aS'13'
p521
aS'14'
p522
aS'15'
p523
aS'16'
p524
aS'17'
p525
aS'18'
p526
aS'19'
p527
asg29
g30
sg31
I01
sg32
(dp528
I0
g91
sI1
g35
sI2
g91
sI3
g34
sI4
g36
sI5
S'orange'
p529
sI6
g35
sI7
g529
sI8
g34
sI9
g35
sI10
g36
sI11
g529
sI12
g91
sI13
g35
sI14
g34
ssg37
g1
(g38
g3
Ntp530
Rp531
(dp532
g42
(dp533
I0
(dp534
sI1
(dp535
sI2
(dp536
sI3
(dp537
sI4
(dp538
sI5
(dp539
sI6
(dp540
sI7
(dp541
sI8
(dp542
sI9
(dp543
sI10
(dp544
sI11
(dp545
sI12
(dp546
sI13
(dp547
sI14
(dp548
ssg50
g51
sg52
g51
sg53
(dp549
I0
(dp550
I3
(dp551
sI4
(dp552
sI5
(dp553
sI6
(dp554
sI7
(dp555
sI10
(dp556
sI13
(dp557
sI14
(dp558
ssI1
(dp559
I2
(dp560
sI3
(dp561
sI4
(dp562
sI5
(dp563
sI7
(dp564
sI8
(dp565
sI10
(dp566
sI12
(dp567
sI14
(dp568
ssI2
(dp569
I1
g560
sI3
(dp570
sI5
(dp571
sI8
(dp572
sI9
(dp573
sI10
(dp574
sI11
(dp575
sI13
(dp576
ssI3
(dp577
I0
g551
sI1
g561
sI2
g570
sI4
(dp578
sI5
(dp579
sI6
(dp580
sI9
(dp581
sI11
(dp582
sI12
(dp583
sI13
(dp584
ssI4
(dp585
I0
g552
sI1
g562
sI3
g578
sI6
(dp586
sI7
(dp587
sI12
(dp588
sI13
(dp589
sI14
(dp590
ssI5
(dp591
I0
g553
sI1
g563
sI2
g571
sI3
g579
sI6
(dp592
sI9
(dp593
sI10
(dp594
sI14
(dp595
ssI6
(dp596
I0
g554
sI3
g580
sI4
g586
sI5
g592
sI7
(dp597
sI8
(dp598
sI14
(dp599
ssI7
(dp600
I0
g555
sI1
g564
sI4
g587
sI6
g597
sI8
(dp601
sI9
(dp602
sI10
(dp603
sI12
(dp604
sI14
(dp605
ssI8
(dp606
I1
g565
sI2
g572
sI6
g598
sI7
g601
sI10
(dp607
sI12
(dp608
ssI9
(dp609
I2
g573
sI3
g581
sI5
g593
sI7
g602
sI11
(dp610
sI14
(dp611
ssI10
(dp612
I0
g556
sI1
g566
sI2
g574
sI5
g594
sI7
g603
sI8
g607
sI11
(dp613
sI12
(dp614
ssI11
(dp615
I9
g610
sI2
g575
sI3
g582
sI12
(dp616
sI10
g613
ssI12
(dp617
I1
g567
sI3
g583
sI4
g588
sI7
g604
sI8
g608
sI10
g614
sI11
g616
sI13
(dp618
ssI13
(dp619
I0
g557
sI12
g618
sI2
g576
sI3
g584
sI4
g589
ssI14
(dp620
I0
g558
sI1
g568
sI4
g590
sI5
g595
sI6
g599
sI7
g605
sI9
g611
sssg37
(dp621
sg71
g51
sg72
g549
sbsg73
g74
sbI2
tp622
sI16
(g1
(g2
g3
Ntp623
Rp624
(dp625
g7
(lp626
g9
ag10
ag11
ag12
ag13
ag14
ag15
ag16
ag17
ag18
aS'10'
p627
aS'11'
p628
aS'12'
p629
aS'13'
p630
aS'14'
p631
aS'15'
p632
aS'16'
p633
aS'17'
p634
aS'18'
p635
aS'19'
p636
asg29
g30
sg31
I01
sg32
(dp637
I0
g34
sI1
g34
sI2
g35
sI3
g34
sI4
g36
sI5
g36
sI6
g36
sI7
g35
sI8
g91
sI9
g35
sI10
g91
sI11
g35
sI12
g36
sI13
g529
sI14
g35
sI15
g34
ssg37
g1
(g38
g3
Ntp638
Rp639
(dp640
g42
(dp641
I0
(dp642
sI1
(dp643
sI2
(dp644
sI3
(dp645
sI4
(dp646
sI5
(dp647
sI6
(dp648
sI7
(dp649
sI8
(dp650
sI9
(dp651
sI10
(dp652
sI11
(dp653
sI12
(dp654
sI13
(dp655
sI14
(dp656
sI15
(dp657
ssg50
g51
sg52
g51
sg53
(dp658
I0
(dp659
I2
(dp660
sI4
(dp661
sI6
(dp662
sI7
(dp663
sI9
(dp664
sI10
(dp665
sI11
(dp666
sI12
(dp667
ssI1
(dp668
I2
(dp669
sI4
(dp670
sI5
(dp671
sI6
(dp672
sI8
(dp673
sI9
(dp674
sI11
(dp675
sI13
(dp676
sI14
(dp677
ssI2
(dp678
I0
g660
sI1
g669
sI3
(dp679
sI4
(dp680
sI5
(dp681
sI8
(dp682
sI10
(dp683
sI12
(dp684
sI13
(dp685
ssI3
(dp686
I2
g679
sI4
(dp687
sI5
(dp688
sI6
(dp689
sI8
(dp690
sI12
(dp691
sI13
(dp692
ssI4
(dp693
I0
g661
sI1
g670
sI2
g680
sI3
g687
sI7
(dp694
sI9
(dp695
sI10
(dp696
sI15
(dp697
ssI5
(dp698
I11
(dp699
sI1
g671
sI2
g681
sI3
g688
sI15
(dp700
ssI6
(dp701
I0
g662
sI1
g672
sI3
g689
sI7
(dp702
sI8
(dp703
sI9
(dp704
sI10
(dp705
sI13
(dp706
sI14
(dp707
sI15
(dp708
ssI7
(dp709
I0
g663
sI12
(dp710
sI10
(dp711
sI4
g694
sI6
g702
ssI8
(dp712
I1
g673
sI2
g682
sI3
g690
sI6
g703
sI9
(dp713
sI13
(dp714
sI15
(dp715
ssI9
(dp716
I0
g664
sI1
g674
sI4
g695
sI6
g704
sI8
g713
sI12
(dp717
sI15
(dp718
ssI10
(dp719
I0
g665
sI2
g683
sI4
g696
sI6
g705
sI7
g711
sI12
(dp720
sI13
(dp721
sI14
(dp722
sI15
(dp723
ssI11
(dp724
I0
g666
sI1
g675
sI12
(dp725
sI5
g699
sI13
(dp726
ssI12
(dp727
I0
g667
sI2
g684
sI3
g691
sI7
g710
sI9
g717
sI10
g720
sI11
g725
sI14
(dp728
ssI13
(dp729
I1
g676
sI2
g685
sI3
g692
sI6
g706
sI8
g714
sI10
g721
sI11
g726
sI14
(dp730
sI15
(dp731
ssI14
(dp732
I1
g677
sI10
g722
sI12
g728
sI13
g730
sI6
g707
ssI15
(dp733
I4
g697
sI5
g700
sI6
g708
sI8
g715
sI9
g718
sI10
g723
sI13
g731
sssg37
(dp734
sg71
g51
sg72
g658
sbsg73
g74
sbI1
tp735
sI17
(g1
(g2
g3
Ntp736
Rp737
(dp738
g7
(lp739
g9
ag10
ag11
ag12
ag13
ag14
ag15
ag16
ag17
ag18
aS'10'
p740
aS'11'
p741
aS'12'
p742
aS'13'
p743
aS'14'
p744
aS'15'
p745
aS'16'
p746
aS'17'
p747
aS'18'
p748
aS'19'
p749
asg29
g30
sg31
I01
sg32
(dp750
I0
g34
sI1
g35
sI2
g34
sI3
g34
sI4
g91
sI5
g34
sI6
g36
sI7
g91
sI8
g529
sI9
g35
sI10
g36
sI11
g36
sI12
g91
sI13
g36
sI14
g35
sI15
g35
sI16
g91
ssg37
g1
(g38
g3
Ntp751
Rp752
(dp753
g42
(dp754
I0
(dp755
sI1
(dp756
sI2
(dp757
sI3
(dp758
sI4
(dp759
sI5
(dp760
sI6
(dp761
sI7
(dp762
sI8
(dp763
sI9
(dp764
sI10
(dp765
sI11
(dp766
sI12
(dp767
sI13
(dp768
sI14
(dp769
sI15
(dp770
sI16
(dp771
ssg50
g51
sg52
g51
sg53
(dp772
I0
(dp773
I1
(dp774
sI4
(dp775
sI6
(dp776
sI7
(dp777
sI9
(dp778
sI14
(dp779
sI15
(dp780
sI16
(dp781
ssI1
(dp782
I0
g774
sI4
(dp783
sI5
(dp784
sI8
(dp785
sI11
(dp786
sI16
(dp787
ssI2
(dp788
I6
(dp789
sI8
(dp790
sI9
(dp791
sI10
(dp792
sI11
(dp793
sI12
(dp794
sI13
(dp795
sI14
(dp796
sI15
(dp797
sI16
(dp798
ssI3
(dp799
I7
(dp800
sI8
(dp801
sI9
(dp802
sI10
(dp803
sI11
(dp804
sI12
(dp805
sI13
(dp806
sI15
(dp807
sI16
(dp808
ssI4
(dp809
I0
g775
sI1
g783
sI5
(dp810
sI8
(dp811
sI9
(dp812
sI10
(dp813
sI11
(dp814
sI15
(dp815
ssI5
(dp816
I1
g784
sI4
g810
sI8
(dp817
sI10
(dp818
sI11
(dp819
sI12
(dp820
sI13
(dp821
sI14
(dp822
sI15
(dp823
sI16
(dp824
ssI6
(dp825
I0
g776
sI2
g789
sI7
(dp826
sI8
(dp827
sI14
(dp828
sI15
(dp829
ssI7
(dp830
I0
g777
sI3
g800
sI6
g826
sI8
(dp831
sI10
(dp832
sI11
(dp833
sI14
(dp834
ssI8
(dp835
I1
g785
sI2
g790
sI3
g801
sI4
g811
sI5
g817
sI6
g827
sI7
g831
sI9
(dp836
sI11
(dp837
sI12
(dp838
sI13
(dp839
sI14
(dp840
sI16
(dp841
ssI9
(dp842
I0
g778
sI2
g791
sI3
g802
sI4
g812
sI8
g836
sI10
(dp843
sI12
(dp844
sI16
(dp845
ssI10
(dp846
I2
g792
sI3
g803
sI4
g813
sI5
g818
sI7
g832
sI9
g843
sI14
(dp847
sI16
(dp848
ssI11
(dp849
I1
g786
sI2
g793
sI3
g804
sI4
g814
sI5
g819
sI7
g833
sI8
g837
sI12
(dp850
sI14
(dp851
sI16
(dp852
ssI12
(dp853
I2
g794
sI3
g805
sI5
g820
sI8
g838
sI9
g844
sI11
g850
sI13
(dp854
ssI13
(dp855
I2
g795
sI3
g806
sI5
g821
sI8
g839
sI12
g854
sI14
(dp856
ssI14
(dp857
I0
g779
sI2
g796
sI5
g822
sI6
g828
sI7
g834
sI8
g840
sI10
g847
sI11
g851
sI13
g856
sI16
(dp858
ssI15
(dp859
I0
g780
sI2
g797
sI3
g807
sI4
g815
sI5
g823
sI6
g829
sI16
(dp860
ssI16
(dp861
I0
g781
sI1
g787
sI2
g798
sI3
g808
sI5
g824
sI8
g841
sI9
g845
sI10
g848
sI11
g852
sI14
g858
sI15
g860
sssg37
(dp862
sg71
g51
sg72
g772
sbsg73
g74
sbI1
tp863
sI18
(g1
(g2
g3
Ntp864
Rp865
(dp866
g7
(lp867
g9
ag10
ag11
ag12
ag13
ag14
ag15
ag16
ag17
ag18
aS'10'
p868
aS'11'
p869
aS'12'
p870
aS'13'
p871
aS'14'
p872
aS'15'
p873
aS'16'
p874
aS'17'
p875
aS'18'
p876
aS'19'
p877
asg29
g30
sg31
I01
sg32
(dp878
I0
g91
sI1
g529
sI2
g34
sI3
g529
sI4
g34
sI5
g36
sI6
g35
sI7
g36
sI8
g529
sI9
g34
sI10
g36
sI11
g91
sI12
g91
sI13
g35
sI14
g35
sI15
g36
sI16
g35
sI17
g91
ssg37
g1
(g38
g3
Ntp879
Rp880
(dp881
g42
(dp882
I0
(dp883
sI1
(dp884
sI2
(dp885
sI3
(dp886
sI4
(dp887
sI5
(dp888
sI6
(dp889
sI7
(dp890
sI8
(dp891
sI9
(dp892
sI10
(dp893
sI11
(dp894
sI12
(dp895
sI13
(dp896
sI14
(dp897
sI15
(dp898
sI16
(dp899
sI17
(dp900
ssg50
g51
sg52
g51
sg53
(dp901
I0
(dp902
I2
(dp903
sI4
(dp904
sI5
(dp905
sI6
(dp906
sI7
(dp907
sI8
(dp908
sI9
(dp909
sI10
(dp910
ssI1
(dp911
I2
(dp912
sI4
(dp913
sI5
(dp914
sI6
(dp915
sI7
(dp916
sI10
(dp917
sI11
(dp918
sI12
(dp919
sI13
(dp920
ssI2
(dp921
I0
g903
sI1
g912
sI6
(dp922
sI7
(dp923
sI8
(dp924
sI10
(dp925
sI11
(dp926
sI13
(dp927
sI14
(dp928
sI15
(dp929
sI17
(dp930
ssI3
(dp931
I4
(dp932
sI6
(dp933
sI7
(dp934
sI9
(dp935
sI11
(dp936
sI12
(dp937
sI13
(dp938
sI14
(dp939
sI15
(dp940
ssI4
(dp941
I0
g904
sI1
g913
sI3
g932
sI5
(dp942
sI10
(dp943
sI12
(dp944
sI15
(dp945
sI16
(dp946
ssI5
(dp947
I0
g905
sI1
g914
sI4
g942
sI8
(dp948
sI12
(dp949
sI14
(dp950
sI16
(dp951
sI17
(dp952
ssI6
(dp953
I0
g906
sI1
g915
sI2
g922
sI3
g933
sI7
(dp954
sI8
(dp955
sI10
(dp956
sI15
(dp957
ssI7
(dp958
I0
g907
sI1
g916
sI2
g923
sI3
g934
sI6
g954
sI8
(dp959
sI9
(dp960
sI12
(dp961
ssI8
(dp962
I0
g908
sI2
g924
sI5
g948
sI6
g955
sI7
g959
sI10
(dp963
sI11
(dp964
sI12
(dp965
sI14
(dp966
sI16
(dp967
sI17
(dp968
ssI9
(dp969
I0
g909
sI3
g935
sI7
g960
sI11
(dp970
sI12
(dp971
sI13
(dp972
sI14
(dp973
sI17
(dp974
ssI10
(dp975
I0
g910
sI1
g917
sI2
g925
sI4
g943
sI6
g956
sI8
g963
sI11
(dp976
sI13
(dp977
sI16
(dp978
sI17
(dp979
ssI11
(dp980
I1
g918
sI2
g926
sI3
g936
sI8
g964
sI9
g970
sI10
g976
sI13
(dp981
sI14
(dp982
ssI12
(dp983
I1
g919
sI3
g937
sI4
g944
sI5
g949
sI7
g961
sI8
g965
sI9
g971
sI13
(dp984
sI14
(dp985
sI16
(dp986
ssI13
(dp987
I1
g920
sI2
g927
sI3
g938
sI9
g972
sI10
g977
sI11
g981
sI12
g984
sI17
(dp988
ssI14
(dp989
I2
g928
sI3
g939
sI5
g950
sI8
g966
sI9
g973
sI11
g982
sI12
g985
sI17
(dp990
ssI15
(dp991
I2
g929
sI3
g940
sI4
g945
sI6
g957
sI16
(dp992
sI17
(dp993
ssI16
(dp994
I4
g946
sI5
g951
sI8
g967
sI10
g978
sI12
g986
sI15
g992
sI17
(dp995
ssI17
(dp996
I2
g930
sI5
g952
sI8
g968
sI9
g974
sI10
g979
sI13
g988
sI14
g990
sI15
g993
sI16
g995
sssg37
(dp997
sg71
g51
sg72
g901
sbsg73
g74
sbI2
tp998
sI19
(g1
(g2
g3
Ntp999
Rp1000
(dp1001
g7
(lp1002
g9
ag10
ag11
ag12
ag13
ag14
ag15
ag16
ag17
ag18
aS'10'
p1003
aS'11'
p1004
aS'12'
p1005
aS'13'
p1006
aS'14'
p1007
aS'15'
p1008
aS'16'
p1009
aS'17'
p1010
aS'18'
p1011
aS'19'
p1012
asg29
g30
sg31
I01
sg32
(dp1013
I0
g35
sI1
g529
sI2
g529
sI3
S'green'
p1014
sI4
g34
sI5
g1014
sI6
g34
sI7
g91
sI8
g36
sI9
g91
sI10
g34
sI11
g35
sI12
g36
sI13
g34
sI14
g34
sI15
g529
sI16
g36
sI17
g529
sI18
g36
ssg37
g1
(g38
g3
Ntp1015
Rp1016
(dp1017
g42
(dp1018
I0
(dp1019
sI1
(dp1020
sI2
(dp1021
sI3
(dp1022
sI4
(dp1023
sI5
(dp1024
sI6
(dp1025
sI7
(dp1026
sI8
(dp1027
sI9
(dp1028
sI10
(dp1029
sI11
(dp1030
sI12
(dp1031
sI13
(dp1032
sI14
(dp1033
sI15
(dp1034
sI16
(dp1035
sI17
(dp1036
sI18
(dp1037
ssg50
g51
sg52
g51
sg53
(dp1038
I0
(dp1039
I1
(dp1040
sI2
(dp1041
sI3
(dp1042
sI5
(dp1043
sI7
(dp1044
sI10
(dp1045
sI12
(dp1046
sI14
(dp1047
sI16
(dp1048
sI17
(dp1049
ssI1
(dp1050
I0
g1040
sI3
(dp1051
sI4
(dp1052
sI7
(dp1053
sI8
(dp1054
sI11
(dp1055
sI12
(dp1056
sI13
(dp1057
sI14
(dp1058
sI18
(dp1059
ssI2
(dp1060
I0
g1041
sI3
(dp1061
sI4
(dp1062
sI5
(dp1063
sI6
(dp1064
sI8
(dp1065
sI9
(dp1066
sI10
(dp1067
sI12
(dp1068
sI13
(dp1069
sI18
(dp1070
ssI3
(dp1071
I0
g1042
sI1
g1051
sI2
g1061
sI4
(dp1072
sI6
(dp1073
sI8
(dp1074
sI9
(dp1075
sI10
(dp1076
sI11
(dp1077
sI15
(dp1078
ssI4
(dp1079
I1
g1052
sI2
g1062
sI3
g1072
sI7
(dp1080
sI8
(dp1081
sI9
(dp1082
sI11
(dp1083
sI12
(dp1084
sI15
(dp1085
sI16
(dp1086
sI17
(dp1087
sI18
(dp1088
ssI5
(dp1089
I0
g1043
sI2
g1063
sI6
(dp1090
sI7
(dp1091
sI9
(dp1092
sI11
(dp1093
sI12
(dp1094
sI13
(dp1095
sI14
(dp1096
sI15
(dp1097
sI16
(dp1098
ssI6
(dp1099
I2
g1064
sI3
g1073
sI5
g1090
sI8
(dp1100
sI11
(dp1101
sI15
(dp1102
sI16
(dp1103
sI17
(dp1104
sI18
(dp1105
ssI7
(dp1106
I0
g1044
sI1
g1053
sI4
g1080
sI5
g1091
sI8
(dp1107
sI11
(dp1108
sI15
(dp1109
sI16
(dp1110
sI17
(dp1111
sI18
(dp1112
ssI8
(dp1113
I1
g1054
sI2
g1065
sI3
g1074
sI4
g1081
sI6
g1100
sI7
g1107
sI9
(dp1114
sI11
(dp1115
sI15
(dp1116
sI17
(dp1117
ssI9
(dp1118
I2
g1066
sI3
g1075
sI4
g1082
sI5
g1092
sI8
g1114
sI11
(dp1119
sI12
(dp1120
sI13
(dp1121
sI15
(dp1122
sI16
(dp1123
sI17
(dp1124
sI18
(dp1125
ssI10
(dp1126
I0
g1045
sI11
(dp1127
sI2
g1067
sI3
g1076
sI16
(dp1128
ssI11
(dp1129
I1
g1055
sI3
g1077
sI4
g1083
sI5
g1093
sI6
g1101
sI7
g1108
sI8
g1115
sI9
g1119
sI10
g1127
sI12
(dp1130
sI13
(dp1131
sI14
(dp1132
sI15
(dp1133
sI18
(dp1134
ssI12
(dp1135
I0
g1046
sI1
g1056
sI2
g1068
sI4
g1084
sI5
g1094
sI9
g1120
sI11
g1130
sI15
(dp1136
sI17
(dp1137
ssI13
(dp1138
I1
g1057
sI2
g1069
sI5
g1095
sI9
g1121
sI11
g1131
sI15
(dp1139
sI18
(dp1140
ssI14
(dp1141
I0
g1047
sI1
g1058
sI5
g1096
sI11
g1132
sI15
(dp1142
sI17
(dp1143
sI18
(dp1144
ssI15
(dp1145
I3
g1078
sI4
g1085
sI5
g1097
sI6
g1102
sI7
g1109
sI8
g1116
sI9
g1122
sI11
g1133
sI12
g1136
sI13
g1139
sI14
g1142
sI16
(dp1146
ssI16
(dp1147
I0
g1048
sI4
g1086
sI5
g1098
sI6
g1103
sI7
g1110
sI9
g1123
sI10
g1128
sI15
g1146
sI17
(dp1148
ssI17
(dp1149
I0
g1049
sI4
g1087
sI6
g1104
sI7
g1111
sI8
g1117
sI9
g1124
sI12
g1137
sI14
g1143
sI16
g1148
sI18
(dp1150
ssI18
(dp1151
I1
g1059
sI2
g1070
sI4
g1088
sI6
g1105
sI7
g1112
sI9
g1125
sI11
g1134
sI13
g1140
sI14
g1144
sI17
g1150
sssg37
(dp1152
sg71
g51
sg72
g1038
sbsg73
g74
sbI1
tp1153
sI20
(g1
(g2
g3
Ntp1154
Rp1155
(dp1156
g7
(lp1157
g9
ag10
ag11
ag12
ag13
ag14
ag15
ag16
ag17
ag18
aS'10'
p1158
aS'11'
p1159
aS'12'
p1160
aS'13'
p1161
aS'14'
p1162
aS'15'
p1163
aS'16'
p1164
aS'17'
p1165
aS'18'
p1166
aS'19'
p1167
asg29
g30
sg31
I01
sg32
(dp1168
I0
g529
sI1
g529
sI2
g35
sI3
g529
sI4
g34
sI5
g36
sI6
g36
sI7
g91
sI8
g34
sI9
g36
sI10
g36
sI11
g91
sI12
g34
sI13
g35
sI14
g91
sI15
g35
sI16
g35
sI17
g34
sI18
g36
sI19
g34
ssg37
g1
(g38
g3
Ntp1169
Rp1170
(dp1171
g42
(dp1172
I0
(dp1173
sI1
(dp1174
sI2
(dp1175
sI3
(dp1176
sI4
(dp1177
sI5
(dp1178
sI6
(dp1179
sI7
(dp1180
sI8
(dp1181
sI9
(dp1182
sI10
(dp1183
sI11
(dp1184
sI12
(dp1185
sI13
(dp1186
sI14
(dp1187
sI15
(dp1188
sI16
(dp1189
sI17
(dp1190
sI18
(dp1191
sI19
(dp1192
ssg50
g51
sg52
g51
sg53
(dp1193
I0
(dp1194
I2
(dp1195
sI4
(dp1196
sI5
(dp1197
sI6
(dp1198
sI9
(dp1199
sI10
(dp1200
sI13
(dp1201
sI14
(dp1202
sI16
(dp1203
sI17
(dp1204
sI18
(dp1205
ssI1
(dp1206
I6
(dp1207
sI8
(dp1208
sI9
(dp1209
sI10
(dp1210
sI12
(dp1211
sI14
(dp1212
sI15
(dp1213
ssI2
(dp1214
I0
g1195
sI4
(dp1215
sI6
(dp1216
sI7
(dp1217
sI11
(dp1218
sI12
(dp1219
sI14
(dp1220
sI17
(dp1221
sI18
(dp1222
ssI3
(dp1223
I5
(dp1224
sI6
(dp1225
sI9
(dp1226
sI12
(dp1227
sI14
(dp1228
sI16
(dp1229
sI17
(dp1230
sI18
(dp1231
sI19
(dp1232
ssI4
(dp1233
I0
g1196
sI2
g1215
sI5
(dp1234
sI6
(dp1235
sI9
(dp1236
sI10
(dp1237
sI16
(dp1238
ssI5
(dp1239
I0
g1197
sI3
g1224
sI4
g1234
sI7
(dp1240
sI8
(dp1241
sI11
(dp1242
sI12
(dp1243
sI15
(dp1244
sI17
(dp1245
sI19
(dp1246
ssI6
(dp1247
I0
g1198
sI1
g1207
sI2
g1216
sI3
g1225
sI4
g1235
sI11
(dp1248
sI13
(dp1249
sI14
(dp1250
sI15
(dp1251
sI17
(dp1252
sI19
(dp1253
ssI7
(dp1254
I2
g1217
sI5
g1240
sI9
(dp1255
sI10
(dp1256
sI12
(dp1257
sI13
(dp1258
sI15
(dp1259
sI16
(dp1260
sI17
(dp1261
ssI8
(dp1262
I1
g1208
sI10
(dp1263
sI11
(dp1264
sI5
g1241
ssI9
(dp1265
I0
g1199
sI1
g1209
sI3
g1226
sI4
g1236
sI7
g1255
sI11
(dp1266
sI13
(dp1267
sI14
(dp1268
sI15
(dp1269
ssI10
(dp1270
I0
g1200
sI1
g1210
sI4
g1237
sI7
g1256
sI8
g1263
sI12
(dp1271
sI14
(dp1272
sI16
(dp1273
sI19
(dp1274
ssI11
(dp1275
I2
g1218
sI5
g1242
sI6
g1248
sI8
g1264
sI9
g1266
sI13
(dp1276
sI18
(dp1277
sI19
(dp1278
ssI12
(dp1279
I1
g1211
sI2
g1219
sI3
g1227
sI5
g1243
sI7
g1257
sI10
g1271
sI13
(dp1280
sI14
(dp1281
sI16
(dp1282
ssI13
(dp1283
I0
g1201
sI6
g1249
sI7
g1258
sI9
g1267
sI11
g1276
sI12
g1280
sI17
(dp1284
ssI14
(dp1285
I0
g1202
sI1
g1212
sI2
g1220
sI3
g1228
sI6
g1250
sI9
g1268
sI10
g1272
sI12
g1281
sI15
(dp1286
sI16
(dp1287
sI17
(dp1288
sI18
(dp1289
ssI15
(dp1290
I1
g1213
sI5
g1244
sI6
g1251
sI7
g1259
sI9
g1269
sI14
g1286
sI18
(dp1291
sI19
(dp1292
ssI16
(dp1293
I0
g1203
sI3
g1229
sI4
g1238
sI7
g1260
sI10
g1273
sI12
g1282
sI14
g1287
sI17
(dp1294
sI18
(dp1295
sI19
(dp1296
ssI17
(dp1297
I0
g1204
sI2
g1221
sI3
g1230
sI5
g1245
sI6
g1252
sI7
g1261
sI13
g1284
sI14
g1288
sI16
g1294
sI18
(dp1298
ssI18
(dp1299
I0
g1205
sI2
g1222
sI3
g1231
sI11
g1277
sI14
g1289
sI15
g1291
sI16
g1295
sI17
g1298
ssI19
(dp1300
I3
g1232
sI5
g1246
sI6
g1253
sI10
g1274
sI11
g1278
sI15
g1292
sI16
g1296
sssg37
(dp1301
sg71
g51
sg72
g1193
sbsg73
g74
sbI2
tp1302
s.