(dp0
I7
(ccopy_reg
_reconstructor
p1
(c__main__
ColorGraph
p2
c__builtin__
object
p3
Ntp4
Rp5
(dp6
S'ALL_COLOURS'
p7
(lp8
S'0'
p9
aS'1'
p10
aS'2'
p11
aS'3'
p12
aS'4'
p13
aS'5'
p14
aS'6'
p15
aS'7'
p16
aS'8'
p17
aS'9'
p18
aS'10'
p19
aS'11'
p20
aS'12'
p21
aS'13'
p22
aS'14'
p23
aS'15'
p24
aS'16'
p25
aS'17'
p26
aS'18'
p27
aS'19'
p28
asS'plotname'
p29
S'graphcolouring'
p30
sS'revert'
p31
I01
sS'colours'
p32
(dp33
I0
S'red'
p34
sI1
S'blue'
p35
sI2
S'yellow'
p36
sI3
g35
sI4
g34
sI5
g34
sI6
g35
ssS'graph'
p37
g1
(cnetworkx.classes.graph
Graph
p38
g3
Ntp39
Rp40
(dp41
S'node'
p42
(dp43
I0
(dp44
sI1
(dp45
sI2
(dp46
sI3
(dp47
sI4
(dp48
sI5
(dp49
sI6
(dp50
ssS'node_dict_factory'
p51
c__builtin__
dict
p52
sS'edge_attr_dict_factory'
p53
g52
sS'edge'
p54
(dp55
I0
(dp56
I2
(dp57
sI3
(dp58
sI6
(dp59
ssI1
(dp60
I4
(dp61
sI5
(dp62
ssI2
(dp63
I0
g57
sI3
(dp64
sI4
(dp65
sI5
(dp66
sI6
(dp67
ssI3
(dp68
I0
g58
sI2
g64
sI4
(dp69
ssI4
(dp70
I1
g61
sI2
g65
sI3
g69
ssI5
(dp71
I1
g62
sI2
g66
sI6
(dp72
ssI6
(dp73
I0
g59
sI2
g67
sI5
g72
sssg37
(dp74
sS'adjlist_dict_factory'
p75
g52
sS'adj'
p76
g55
sbsS'DIRECTORY'
p77
S'/home/mickael/Documents/projects/examination-scheduling/booth/plots/'
p78
sS'history'
p79
(dp80
I0
(dp81
I0
S'white'
p82
sI1
g82
sI2
g82
sI3
g82
sI4
g82
sI5
g82
sI6
g82
ssI1
(dp83
I0
g82
sI1
g82
sI2
g82
sI3
g35
sI4
g82
sI5
g82
sI6
g82
ssI2
(dp84
I0
g82
sI1
g35
sI2
g82
sI3
g35
sI4
g82
sI5
g82
sI6
g82
ssI3
(dp85
I0
g82
sI1
g35
sI2
g82
sI3
g35
sI4
g82
sI5
g82
sI6
g35
ssI4
(dp86
I0
g82
sI1
g35
sI2
g82
sI3
g35
sI4
g34
sI5
g82
sI6
g35
ssI5
(dp87
I0
g34
sI1
g35
sI2
g82
sI3
g35
sI4
g34
sI5
g82
sI6
g35
ssI6
(dp88
I0
g34
sI1
g35
sI2
g36
sI3
g35
sI4
g34
sI5
g82
sI6
g35
ssI7
(dp89
I0
g34
sI1
g35
sI2
g36
sI3
g35
sI4
g34
sI5
g34
sI6
g35
sssbI1
tp90
sI8
(g1
(g2
g3
Ntp91
Rp92
(dp93
g7
(lp94
g9
ag10
ag11
ag12
ag13
ag14
ag15
ag16
ag17
ag18
aS'10'
p95
aS'11'
p96
aS'12'
p97
aS'13'
p98
aS'14'
p99
aS'15'
p100
aS'16'
p101
aS'17'
p102
aS'18'
p103
aS'19'
p104
asg29
g30
sg31
I01
sg32
(dp105
I0
g35
sI1
g35
sI2
g36
sI3
g34
sI4
g34
sI5
g35
sI6
g34
sI7
g36
ssg37
g1
(g38
g3
Ntp106
Rp107
(dp108
g42
(dp109
I0
(dp110
sI1
(dp111
sI2
(dp112
sI3
(dp113
sI4
(dp114
sI5
(dp115
sI6
(dp116
sI7
(dp117
ssg51
g52
sg53
g52
sg54
(dp118
I0
(dp119
I2
(dp120
sI3
(dp121
sI4
(dp122
sI6
(dp123
sI7
(dp124
ssI1
(dp125
I3
(dp126
ssI2
(dp127
I0
g120
sI3
(dp128
sI5
(dp129
sI6
(dp130
ssI3
(dp131
I0
g121
sI1
g126
sI2
g128
sI5
(dp132
ssI4
(dp133
I0
g122
sI7
(dp134
ssI5
(dp135
I2
g129
sI3
g132
sI6
(dp136
sI7
(dp137
ssI6
(dp138
I0
g123
sI2
g130
sI5
g136
sI7
(dp139
ssI7
(dp140
I0
g124
sI4
g134
sI5
g137
sI6
g139
sssg37
(dp141
sg75
g52
sg76
g118
sbsg77
S'/home/mickael/Documents/projects/examination-scheduling/booth/plots/'
p142
sg79
(dp143
I0
(dp144
I0
g82
sI1
g82
sI2
g82
sI3
g82
sI4
g82
sI5
g82
sI6
g82
sI7
g82
ssI1
(dp145
I0
g82
sI1
g82
sI2
g82
sI3
g82
sI4
g82
sI5
g35
sI6
g82
sI7
g82
ssI2
(dp146
I0
g35
sI1
g82
sI2
g82
sI3
g82
sI4
g82
sI5
g35
sI6
g82
sI7
g82
ssI3
(dp147
I0
g35
sI1
g82
sI2
g82
sI3
g82
sI4
g82
sI5
g35
sI6
g34
sI7
g82
ssI4
(dp148
I0
g35
sI1
g82
sI2
g82
sI3
g82
sI4
g82
sI5
g35
sI6
g34
sI7
g36
ssI5
(dp149
I0
g35
sI1
g82
sI2
g36
sI3
g82
sI4
g82
sI5
g35
sI6
g34
sI7
g36
ssI6
(dp150
I0
g35
sI1
g82
sI2
g36
sI3
g82
sI4
g34
sI5
g35
sI6
g34
sI7
g36
ssI7
(dp151
I0
g35
sI1
g35
sI2
g36
sI3
g82
sI4
g34
sI5
g35
sI6
g34
sI7
g36
ssI8
(dp152
I0
g35
sI1
g35
sI2
g36
sI3
g34
sI4
g34
sI5
g35
sI6
g34
sI7
g36
sssbI1
tp153
sI9
(g1
(g2
g3
Ntp154
Rp155
(dp156
g7
(lp157
g9
ag10
ag11
ag12
ag13
ag14
ag15
ag16
ag17
ag18
aS'10'
p158
aS'11'
p159
aS'12'
p160
aS'13'
p161
aS'14'
p162
aS'15'
p163
aS'16'
p164
aS'17'
p165
aS'18'
p166
aS'19'
p167
asg29
g30
sg31
I01
sg32
(dp168
I0
g35
sI1
g36
sI2
g34
sI3
g34
sI4
g34
sI5
g34
sI6
g35
sI7
g36
sI8
g35
ssg37
g1
(g38
g3
Ntp169
Rp170
(dp171
g42
(dp172
I0
(dp173
sI1
(dp174
sI2
(dp175
sI3
(dp176
sI4
(dp177
sI5
(dp178
sI6
(dp179
sI7
(dp180
sI8
(dp181
ssg51
g52
sg53
g52
sg54
(dp182
I0
(dp183
I5
(dp184
sI7
(dp185
ssI1
(dp186
I2
(dp187
sI5
(dp188
sI6
(dp189
ssI2
(dp190
I8
(dp191
sI1
g187
sI7
(dp192
ssI3
(dp193
I8
(dp194
sI6
(dp195
sI7
(dp196
ssI4
(dp197
I6
(dp198
ssI5
(dp199
I0
g184
sI1
g188
sI6
(dp200
ssI6
(dp201
I1
g189
sI3
g195
sI4
g198
sI5
g200
ssI7
(dp202
I0
g185
sI8
(dp203
sI2
g192
sI3
g196
ssI8
(dp204
I2
g191
sI3
g194
sI7
g203
sssg37
(dp205
sg75
g52
sg76
g182
sbsg77
S'/home/mickael/Documents/projects/examination-scheduling/booth/plots/'
p206
sg79
(dp207
I0
(dp208
I0
g82
sI1
g82
sI2
g82
sI3
g82
sI4
g82
sI5
g82
sI6
g82
sI7
g82
sI8
g82
ssI1
(dp209
I0
g82
sI1
g82
sI2
g82
sI3
g82
sI4
g82
sI5
g82
sI6
g82
sI7
g82
sI8
g35
ssI2
(dp210
I0
g35
sI1
g82
sI2
g82
sI3
g82
sI4
g82
sI5
g82
sI6
g82
sI7
g82
sI8
g35
ssI3
(dp211
I0
g35
sI1
g82
sI2
g82
sI3
g82
sI4
g82
sI5
g82
sI6
g35
sI7
g82
sI8
g35
ssI4
(dp212
I0
g35
sI1
g82
sI2
g82
sI3
g82
sI4
g34
sI5
g82
sI6
g35
sI7
g82
sI8
g35
ssI5
(dp213
I0
g35
sI1
g82
sI2
g82
sI3
g34
sI4
g34
sI5
g82
sI6
g35
sI7
g82
sI8
g35
ssI6
(dp214
I0
g35
sI1
g82
sI2
g82
sI3
g34
sI4
g34
sI5
g82
sI6
g35
sI7
g36
sI8
g35
ssI7
(dp215
I0
g35
sI1
g82
sI2
g82
sI3
g34
sI4
g34
sI5
g34
sI6
g35
sI7
g36
sI8
g35
ssI8
(dp216
I0
g35
sI1
g82
sI2
g34
sI3
g34
sI4
g34
sI5
g34
sI6
g35
sI7
g36
sI8
g35
ssI9
(dp217
I0
g35
sI1
g36
sI2
g34
sI3
g34
sI4
g34
sI5
g34
sI6
g35
sI7
g36
sI8
g35
sssbI1
tp218
sI10
(g1
(g2
g3
Ntp219
Rp220
(dp221
g7
(lp222
g9
ag10
ag11
ag12
ag13
ag14
ag15
ag16
ag17
ag18
aS'10'
p223
aS'11'
p224
aS'12'
p225
aS'13'
p226
aS'14'
p227
aS'15'
p228
aS'16'
p229
aS'17'
p230
aS'18'
p231
aS'19'
p232
asg29
g30
sg31
I01
sg32
(dp233
I0
g36
sI1
g35
sI2
g36
sI3
g35
sI4
g35
sI5
g34
sI6
g35
sI7
g34
sI8
g34
sI9
g36
ssg37
g1
(g38
g3
Ntp234
Rp235
(dp236
g42
(dp237
I0
(dp238
sI1
(dp239
sI2
(dp240
sI3
(dp241
sI4
(dp242
sI5
(dp243
sI6
(dp244
sI7
(dp245
sI8
(dp246
sI9
(dp247
ssg51
g52
sg53
g52
sg54
(dp248
I0
(dp249
I8
(dp250
sI1
(dp251
sI3
(dp252
ssI1
(dp253
I0
g251
sI8
(dp254
sI2
(dp255
sI9
(dp256
ssI2
(dp257
I8
(dp258
sI1
g255
sI3
(dp259
sI4
(dp260
ssI3
(dp261
I0
g252
sI8
(dp262
sI2
g259
sI5
(dp263
sI9
(dp264
ssI4
(dp265
I9
(dp266
sI2
g260
sI7
(dp267
ssI5
(dp268
I9
(dp269
sI3
g263
sI6
(dp270
ssI6
(dp271
I5
g270
sI7
(dp272
ssI7
(dp273
I9
(dp274
sI4
g267
sI6
g272
ssI8
(dp275
I0
g250
sI1
g254
sI2
g258
sI3
g262
ssI9
(dp276
I1
g256
sI3
g264
sI4
g266
sI5
g269
sI7
g274
sssg37
(dp277
sg75
g52
sg76
g248
sbsg77
S'/home/mickael/Documents/projects/examination-scheduling/booth/plots/'
p278
sg79
(dp279
I0
(dp280
I0
g82
sI1
g82
sI2
g82
sI3
g82
sI4
g82
sI5
g82
sI6
g82
sI7
g82
sI8
g82
sI9
g82
ssI1
(dp281
I0
g82
sI1
g82
sI2
g82
sI3
g82
sI4
g82
sI5
g82
sI6
g35
sI7
g82
sI8
g82
sI9
g82
ssI2
(dp282
I0
g82
sI1
g35
sI2
g82
sI3
g82
sI4
g82
sI5
g82
sI6
g35
sI7
g82
sI8
g82
sI9
g82
ssI3
(dp283
I0
g82
sI1
g35
sI2
g82
sI3
g82
sI4
g82
sI5
g34
sI6
g35
sI7
g82
sI8
g82
sI9
g82
ssI4
(dp284
I0
g82
sI1
g35
sI2
g82
sI3
g35
sI4
g82
sI5
g34
sI6
g35
sI7
g82
sI8
g82
sI9
g82
ssI5
(dp285
I0
g82
sI1
g35
sI2
g82
sI3
g35
sI4
g82
sI5
g34
sI6
g35
sI7
g34
sI8
g82
sI9
g82
ssI6
(dp286
I0
g82
sI1
g35
sI2
g82
sI3
g35
sI4
g35
sI5
g34
sI6
g35
sI7
g34
sI8
g82
sI9
g82
ssI7
(dp287
I0
g82
sI1
g35
sI2
g82
sI3
g35
sI4
g35
sI5
g34
sI6
g35
sI7
g34
sI8
g82
sI9
g36
ssI8
(dp288
I0
g82
sI1
g35
sI2
g82
sI3
g35
sI4
g35
sI5
g34
sI6
g35
sI7
g34
sI8
g34
sI9
g36
ssI9
(dp289
I0
g36
sI1
g35
sI2
g82
sI3
g35
sI4
g35
sI5
g34
sI6
g35
sI7
g34
sI8
g34
sI9
g36
ssI10
(dp290
I0
g36
sI1
g35
sI2
g36
sI3
g35
sI4
g35
sI5
g34
sI6
g35
sI7
g34
sI8
g34
sI9
g36
sssbI1
tp291
sI11
(g1
(g2
g3
Ntp292
Rp293
(dp294
g7
(lp295
g9
ag10
ag11
ag12
ag13
ag14
ag15
ag16
ag17
ag18
aS'10'
p296
aS'11'
p297
aS'12'
p298
aS'13'
p299
aS'14'
p300
aS'15'
p301
aS'16'
p302
aS'17'
p303
aS'18'
p304
aS'19'
p305
asg29
g30
sg31
I01
sg32
(dp306
I0
g34
sI1
g34
sI2
g36
sI3
g35
sI4
g35
sI5
g36
sI6
g36
sI7
g35
sI8
g35
sI9
g35
sI10
g35
ssg37
g1
(g38
g3
Ntp307
Rp308
(dp309
g42
(dp310
I0
(dp311
sI1
(dp312
sI2
(dp313
sI3
(dp314
sI4
(dp315
sI5
(dp316
sI6
(dp317
sI7
(dp318
sI8
(dp319
sI9
(dp320
sI10
(dp321
ssg51
g52
sg53
g52
sg54
(dp322
I0
(dp323
I3
(dp324
sI4
(dp325
sI6
(dp326
ssI1
(dp327
I10
(dp328
sI2
(dp329
sI3
(dp330
sI5
(dp331
ssI2
(dp332
I8
(dp333
sI1
g329
sI4
(dp334
sI9
(dp335
ssI3
(dp336
I0
g324
sI1
g330
sI6
(dp337
ssI4
(dp338
I0
g325
sI2
g334
sI5
(dp339
sI6
(dp340
ssI5
(dp341
I1
g331
sI4
g339
sI9
(dp342
sI7
(dp343
ssI6
(dp344
I0
g326
sI3
g337
sI4
g340
ssI7
(dp345
I5
g343
ssI8
(dp346
I2
g333
ssI9
(dp347
I2
g335
sI5
g342
ssI10
(dp348
I1
g328
sssg37
(dp349
sg75
g52
sg76
g322
sbsg77
S'/home/mickael/Documents/projects/examination-scheduling/booth/plots/'
p350
sg79
(dp351
I0
(dp352
I0
g82
sI1
g82
sI2
g82
sI3
g82
sI4
g82
sI5
g82
sI6
g82
sI7
g82
sI8
g82
sI9
g82
sI10
g82
ssI1
(dp353
I0
g82
sI1
g82
sI2
g82
sI3
g82
sI4
g82
sI5
g82
sI6
g82
sI7
g82
sI8
g35
sI9
g82
sI10
g82
ssI2
(dp354
I0
g82
sI1
g82
sI2
g82
sI3
g82
sI4
g35
sI5
g82
sI6
g82
sI7
g82
sI8
g35
sI9
g82
sI10
g82
ssI3
(dp355
I0
g34
sI1
g82
sI2
g82
sI3
g82
sI4
g35
sI5
g82
sI6
g82
sI7
g82
sI8
g35
sI9
g82
sI10
g82
ssI4
(dp356
I0
g34
sI1
g82
sI2
g82
sI3
g82
sI4
g35
sI5
g82
sI6
g36
sI7
g82
sI8
g35
sI9
g82
sI10
g82
ssI5
(dp357
I0
g34
sI1
g82
sI2
g82
sI3
g35
sI4
g35
sI5
g82
sI6
g36
sI7
g82
sI8
g35
sI9
g82
sI10
g82
ssI6
(dp358
I0
g34
sI1
g82
sI2
g82
sI3
g35
sI4
g35
sI5
g82
sI6
g36
sI7
g82
sI8
g35
sI9
g35
sI10
g82
ssI7
(dp359
I0
g34
sI1
g82
sI2
g82
sI3
g35
sI4
g35
sI5
g82
sI6
g36
sI7
g35
sI8
g35
sI9
g35
sI10
g82
ssI8
(dp360
I0
g34
sI1
g34
sI2
g82
sI3
g35
sI4
g35
sI5
g82
sI6
g36
sI7
g35
sI8
g35
sI9
g35
sI10
g82
ssI9
(dp361
I0
g34
sI1
g34
sI2
g82
sI3
g35
sI4
g35
sI5
g36
sI6
g36
sI7
g35
sI8
g35
sI9
g35
sI10
g82
ssI10
(dp362
I0
g34
sI1
g34
sI2
g82
sI3
g35
sI4
g35
sI5
g36
sI6
g36
sI7
g35
sI8
g35
sI9
g35
sI10
g35
ssI11
(dp363
I0
g34
sI1
g34
sI2
g36
sI3
g35
sI4
g35
sI5
g36
sI6
g36
sI7
g35
sI8
g35
sI9
g35
sI10
g35
sssbI1
tp364
sI12
(g1
(g2
g3
Ntp365
Rp366
(dp367
g7
(lp368
g9
ag10
ag11
ag12
ag13
ag14
ag15
ag16
ag17
ag18
aS'10'
p369
aS'11'
p370
aS'12'
p371
aS'13'
p372
aS'14'
p373
aS'15'
p374
aS'16'
p375
aS'17'
p376
aS'18'
p377
aS'19'
p378
asg29
g30
sg31
I01
sg32
(dp379
I0
g34
sI1
g34
sI2
g34
sI3
g35
sI4
g36
sI5
g35
sI6
g36
sI7
g35
sI8
g35
sI9
g35
sI10
g35
sI11
g36
ssg37
g1
(g38
g3
Ntp380
Rp381
(dp382
g42
(dp383
I0
(dp384
sI1
(dp385
sI2
(dp386
sI3
(dp387
sI4
(dp388
sI5
(dp389
sI6
(dp390
sI7
(dp391
sI8
(dp392
sI9
(dp393
sI10
(dp394
sI11
(dp395
ssg51
g52
sg53
g52
sg54
(dp396
I0
(dp397
I11
(dp398
sI4
(dp399
sI5
(dp400
sI7
(dp401
ssI1
(dp402
I9
(dp403
sI3
(dp404
sI6
(dp405
ssI2
(dp406
I11
(dp407
sI10
(dp408
sI3
(dp409
sI5
(dp410
ssI3
(dp411
I1
g404
sI2
g409
sI6
(dp412
ssI4
(dp413
I0
g399
sI9
(dp414
sI5
(dp415
ssI5
(dp416
I0
g400
sI2
g410
sI11
(dp417
sI4
g415
ssI6
(dp418
I1
g405
sI3
g412
sI9
(dp419
ssI7
(dp420
I0
g401
ssI8
(dp421
sI9
(dp422
I1
g403
sI4
g414
sI6
g419
ssI10
(dp423
I2
g408
sI11
(dp424
ssI11
(dp425
I0
g398
sI2
g407
sI10
g424
sI5
g417
sssg37
(dp426
sg75
g52
sg76
g396
sbsg77
S'/home/mickael/Documents/projects/examination-scheduling/booth/plots/'
p427
sg79
(dp428
I0
(dp429
I0
g82
sI1
g82
sI2
g82
sI3
g82
sI4
g82
sI5
g82
sI6
g82
sI7
g82
sI8
g82
sI9
g82
sI10
g82
sI11
g82
ssI1
(dp430
I0
g82
sI1
g82
sI2
g82
sI3
g82
sI4
g82
sI5
g82
sI6
g82
sI7
g35
sI8
g82
sI9
g82
sI10
g82
sI11
g82
ssI2
(dp431
I0
g82
sI1
g82
sI2
g82
sI3
g82
sI4
g82
sI5
g82
sI6
g82
sI7
g35
sI8
g82
sI9
g82
sI10
g35
sI11
g82
ssI3
(dp432
I0
g82
sI1
g82
sI2
g82
sI3
g35
sI4
g82
sI5
g82
sI6
g82
sI7
g35
sI8
g82
sI9
g82
sI10
g35
sI11
g82
ssI4
(dp433
I0
g82
sI1
g82
sI2
g82
sI3
g35
sI4
g82
sI5
g82
sI6
g82
sI7
g35
sI8
g82
sI9
g35
sI10
g35
sI11
g82
ssI5
(dp434
I0
g82
sI1
g82
sI2
g82
sI3
g35
sI4
g82
sI5
g82
sI6
g82
sI7
g35
sI8
g35
sI9
g35
sI10
g35
sI11
g82
ssI6
(dp435
I0
g82
sI1
g82
sI2
g34
sI3
g35
sI4
g82
sI5
g82
sI6
g82
sI7
g35
sI8
g35
sI9
g35
sI10
g35
sI11
g82
ssI7
(dp436
I0
g82
sI1
g34
sI2
g34
sI3
g35
sI4
g82
sI5
g82
sI6
g82
sI7
g35
sI8
g35
sI9
g35
sI10
g35
sI11
g82
ssI8
(dp437
I0
g34
sI1
g34
sI2
g34
sI3
g35
sI4
g82
sI5
g82
sI6
g82
sI7
g35
sI8
g35
sI9
g35
sI10
g35
sI11
g82
ssI9
(dp438
I0
g34
sI1
g34
sI2
g34
sI3
g35
sI4
g82
sI5
g82
sI6
g36
sI7
g35
sI8
g35
sI9
g35
sI10
g35
sI11
g82
ssI10
(dp439
I0
g34
sI1
g34
sI2
g34
sI3
g35
sI4
g36
sI5
g82
sI6
g36
sI7
g35
sI8
g35
sI9
g35
sI10
g35
sI11
g82
ssI11
(dp440
I0
g34
sI1
g34
sI2
g34
sI3
g35
sI4
g36
sI5
g35
sI6
g36
sI7
g35
sI8
g35
sI9
g35
sI10
g35
sI11
g82
ssI12
(dp441
I0
g34
sI1
g34
sI2
g34
sI3
g35
sI4
g36
sI5
g35
sI6
g36
sI7
g35
sI8
g35
sI9
g35
sI10
g35
sI11
g36
sssbI1
tp442
sI13
(g1
(g2
g3
Ntp443
Rp444
(dp445
g7
(lp446
g9
ag10
ag11
ag12
ag13
ag14
ag15
ag16
ag17
ag18
aS'10'
p447
aS'11'
p448
aS'12'
p449
aS'13'
p450
aS'14'
p451
aS'15'
p452
aS'16'
p453
aS'17'
p454
aS'18'
p455
aS'19'
p456
asg29
g30
sg31
I01
sg32
(dp457
I0
g34
sI1
g36
sI2
g36
sI3
g35
sI4
g34
sI5
g34
sI6
g34
sI7
g36
sI8
g34
sI9
g34
sI10
g35
sI11
g35
sI12
g35
ssg37
g1
(g38
g3
Ntp458
Rp459
(dp460
g42
(dp461
I0
(dp462
sI1
(dp463
sI2
(dp464
sI3
(dp465
sI4
(dp466
sI5
(dp467
sI6
(dp468
sI7
(dp469
sI8
(dp470
sI9
(dp471
sI10
(dp472
sI11
(dp473
sI12
(dp474
ssg51
g52
sg53
g52
sg54
(dp475
I0
(dp476
I2
(dp477
sI3
(dp478
sI12
(dp479
ssI1
(dp480
I3
(dp481
sI4
(dp482
sI6
(dp483
sI8
(dp484
sI9
(dp485
sI10
(dp486
ssI2
(dp487
I0
g477
sI12
(dp488
sI5
(dp489
ssI3
(dp490
I0
g478
sI1
g481
sI5
(dp491
sI7
(dp492
ssI4
(dp493
I1
g482
sI10
(dp494
ssI5
(dp495
I2
g489
sI3
g491
sI10
(dp496
sI7
(dp497
ssI6
(dp498
I1
g483
sI10
(dp499
sI12
(dp500
ssI7
(dp501
I8
(dp502
sI9
(dp503
sI3
g492
sI12
(dp504
sI5
g497
ssI8
(dp505
I1
g484
sI12
(dp506
sI7
g502
ssI9
(dp507
I1
g485
sI10
(dp508
sI7
g503
ssI10
(dp509
I1
g486
sI4
g494
sI5
g496
sI6
g499
sI9
g508
ssI11
(dp510
sI12
(dp511
I0
g479
sI8
g506
sI2
g488
sI6
g500
sI7
g504
sssg37
(dp512
sg75
g52
sg76
g475
sbsg77
S'/home/mickael/Documents/projects/examination-scheduling/booth/plots/'
p513
sg79
(dp514
I0
(dp515
I0
g82
sI1
g82
sI2
g82
sI3
g82
sI4
g82
sI5
g82
sI6
g82
sI7
g82
sI8
g82
sI9
g82
sI10
g82
sI11
g82
sI12
g82
ssI1
(dp516
I0
g82
sI1
g82
sI2
g82
sI3
g82
sI4
g82
sI5
g82
sI6
g82
sI7
g82
sI8
g82
sI9
g82
sI10
g35
sI11
g82
sI12
g82
ssI2
(dp517
I0
g82
sI1
g82
sI2
g82
sI3
g82
sI4
g82
sI5
g82
sI6
g82
sI7
g82
sI8
g82
sI9
g82
sI10
g35
sI11
g35
sI12
g82
ssI3
(dp518
I0
g82
sI1
g82
sI2
g82
sI3
g82
sI4
g82
sI5
g82
sI6
g34
sI7
g82
sI8
g82
sI9
g82
sI10
g35
sI11
g35
sI12
g82
ssI4
(dp519
I0
g82
sI1
g82
sI2
g82
sI3
g82
sI4
g34
sI5
g82
sI6
g34
sI7
g82
sI8
g82
sI9
g82
sI10
g35
sI11
g35
sI12
g82
ssI5
(dp520
I0
g82
sI1
g82
sI2
g82
sI3
g82
sI4
g34
sI5
g82
sI6
g34
sI7
g82
sI8
g82
sI9
g82
sI10
g35
sI11
g35
sI12
g35
ssI6
(dp521
I0
g34
sI1
g82
sI2
g82
sI3
g82
sI4
g34
sI5
g82
sI6
g34
sI7
g82
sI8
g82
sI9
g82
sI10
g35
sI11
g35
sI12
g35
ssI7
(dp522
I0
g34
sI1
g82
sI2
g82
sI3
g82
sI4
g34
sI5
g82
sI6
g34
sI7
g82
sI8
g34
sI9
g82
sI10
g35
sI11
g35
sI12
g35
ssI8
(dp523
I0
g34
sI1
g82
sI2
g82
sI3
g82
sI4
g34
sI5
g82
sI6
g34
sI7
g36
sI8
g34
sI9
g82
sI10
g35
sI11
g35
sI12
g35
ssI9
(dp524
I0
g34
sI1
g82
sI2
g82
sI3
g82
sI4
g34
sI5
g34
sI6
g34
sI7
g36
sI8
g34
sI9
g82
sI10
g35
sI11
g35
sI12
g35
ssI10
(dp525
I0
g34
sI1
g82
sI2
g36
sI3
g82
sI4
g34
sI5
g34
sI6
g34
sI7
g36
sI8
g34
sI9
g82
sI10
g35
sI11
g35
sI12
g35
ssI11
(dp526
I0
g34
sI1
g36
sI2
g36
sI3
g82
sI4
g34
sI5
g34
sI6
g34
sI7
g36
sI8
g34
sI9
g82
sI10
g35
sI11
g35
sI12
g35
ssI12
(dp527
I0
g34
sI1
g36
sI2
g36
sI3
g35
sI4
g34
sI5
g34
sI6
g34
sI7
g36
sI8
g34
sI9
g82
sI10
g35
sI11
g35
sI12
g35
ssI13
(dp528
I0
g34
sI1
g36
sI2
g36
sI3
g35
sI4
g34
sI5
g34
sI6
g34
sI7
g36
sI8
g34
sI9
g34
sI10
g35
sI11
g35
sI12
g35
sssbI1
tp529
sI14
(g1
(g2
g3
Ntp530
Rp531
(dp532
g7
(lp533
g9
ag10
ag11
ag12
ag13
ag14
ag15
ag16
ag17
ag18
aS'10'
p534
aS'11'
p535
aS'12'
p536
aS'13'
p537
aS'14'
p538
aS'15'
p539
aS'16'
p540
aS'17'
p541
aS'18'
p542
aS'19'
p543
asg29
g30
sg31
I01
sg32
(dp544
I0
S'purple'
p545
sI1
g36
sI2
g36
sI3
g35
sI4
g36
sI5
g35
sI6
g545
sI7
g35
sI8
g35
sI9
g34
sI10
g34
sI11
g36
sI12
g34
sI13
g545
ssg37
g1
(g38
g3
Ntp546
Rp547
(dp548
g42
(dp549
I0
(dp550
sI1
(dp551
sI2
(dp552
sI3
(dp553
sI4
(dp554
sI5
(dp555
sI6
(dp556
sI7
(dp557
sI8
(dp558
sI9
(dp559
sI10
(dp560
sI11
(dp561
sI12
(dp562
sI13
(dp563
ssg51
g52
sg53
g52
sg54
(dp564
I0
(dp565
I1
(dp566
sI2
(dp567
sI3
(dp568
sI4
(dp569
sI9
(dp570
sI12
(dp571
ssI1
(dp572
I0
g566
sI3
(dp573
sI6
(dp574
sI8
(dp575
sI9
(dp576
sI12
(dp577
sI13
(dp578
ssI2
(dp579
I0
g567
sI8
(dp580
sI12
(dp581
sI13
(dp582
sI9
(dp583
ssI3
(dp584
I0
g568
sI1
g573
sI10
(dp585
sI4
(dp586
sI13
(dp587
ssI4
(dp588
I0
g569
sI10
(dp589
sI3
g586
sI5
(dp590
sI13
(dp591
ssI5
(dp592
I4
g590
sI6
(dp593
sI9
(dp594
sI10
(dp595
sI12
(dp596
sI13
(dp597
ssI6
(dp598
I1
g574
sI9
(dp599
sI5
g593
sI7
(dp600
ssI7
(dp601
I6
g600
sI9
(dp602
sI10
(dp603
sI11
(dp604
sI12
(dp605
sI13
(dp606
ssI8
(dp607
I1
g575
sI2
g580
sI13
(dp608
sI9
(dp609
ssI9
(dp610
I0
g570
sI1
g576
sI2
g583
sI5
g594
sI6
g599
sI7
g602
sI8
g609
sI11
(dp611
sI13
(dp612
ssI10
(dp613
I3
g585
sI4
g589
sI5
g595
sI7
g603
sI11
(dp614
sI13
(dp615
ssI11
(dp616
I9
g611
sI10
g614
sI12
(dp617
sI7
g604
ssI12
(dp618
I0
g571
sI1
g577
sI2
g581
sI5
g596
sI7
g605
sI11
g617
ssI13
(dp619
I1
g578
sI2
g582
sI3
g587
sI4
g591
sI5
g597
sI7
g606
sI8
g608
sI9
g612
sI10
g615
sssg37
(dp620
sg75
g52
sg76
g564
sbsg77
S'/home/mickael/Documents/projects/examination-scheduling/booth/plots/'
p621
sg79
(dp622
I0
(dp623
I0
g82
sI1
g82
sI2
g82
sI3
g82
sI4
g82
sI5
g82
sI6
g82
sI7
g82
sI8
g82
sI9
g82
sI10
g82
sI11
g82
sI12
g82
sI13
g82
ssI1
(dp624
I0
g82
sI1
g82
sI2
g82
sI3
g82
sI4
g82
sI5
g82
sI6
g82
sI7
g35
sI8
g82
sI9
g82
sI10
g82
sI11
g82
sI12
g82
sI13
g82
ssI2
(dp625
I0
g82
sI1
g82
sI2
g82
sI3
g82
sI4
g82
sI5
g82
sI6
g82
sI7
g35
sI8
g35
sI9
g82
sI10
g82
sI11
g82
sI12
g82
sI13
g82
ssI3
(dp626
I0
g82
sI1
g82
sI2
g82
sI3
g35
sI4
g82
sI5
g82
sI6
g82
sI7
g35
sI8
g35
sI9
g82
sI10
g82
sI11
g82
sI12
g82
sI13
g82
ssI4
(dp627
I0
g82
sI1
g82
sI2
g82
sI3
g35
sI4
g82
sI5
g82
sI6
g82
sI7
g35
sI8
g35
sI9
g82
sI10
g34
sI11
g82
sI12
g82
sI13
g82
ssI5
(dp628
I0
g82
sI1
g82
sI2
g82
sI3
g35
sI4
g82
sI5
g82
sI6
g82
sI7
g35
sI8
g35
sI9
g34
sI10
g34
sI11
g82
sI12
g82
sI13
g82
ssI6
(dp629
I0
g82
sI1
g82
sI2
g36
sI3
g35
sI4
g82
sI5
g82
sI6
g82
sI7
g35
sI8
g35
sI9
g34
sI10
g34
sI11
g82
sI12
g82
sI13
g82
ssI7
(dp630
I0
g82
sI1
g82
sI2
g36
sI3
g35
sI4
g82
sI5
g82
sI6
g82
sI7
g35
sI8
g35
sI9
g34
sI10
g34
sI11
g82
sI12
g82
sI13
g545
ssI8
(dp631
I0
g82
sI1
g36
sI2
g36
sI3
g35
sI4
g82
sI5
g82
sI6
g82
sI7
g35
sI8
g35
sI9
g34
sI10
g34
sI11
g82
sI12
g82
sI13
g545
ssI9
(dp632
I0
g82
sI1
g36
sI2
g36
sI3
g35
sI4
g82
sI5
g82
sI6
g82
sI7
g35
sI8
g35
sI9
g34
sI10
g34
sI11
g82
sI12
g34
sI13
g545
ssI10
(dp633
I0
g82
sI1
g36
sI2
g36
sI3
g35
sI4
g82
sI5
g35
sI6
g82
sI7
g35
sI8
g35
sI9
g34
sI10
g34
sI11
g82
sI12
g34
sI13
g545
ssI11
(dp634
I0
g82
sI1
g36
sI2
g36
sI3
g35
sI4
g82
sI5
g35
sI6
g545
sI7
g35
sI8
g35
sI9
g34
sI10
g34
sI11
g82
sI12
g34
sI13
g545
ssI12
(dp635
I0
g82
sI1
g36
sI2
g36
sI3
g35
sI4
g36
sI5
g35
sI6
g545
sI7
g35
sI8
g35
sI9
g34
sI10
g34
sI11
g82
sI12
g34
sI13
g545
ssI13
(dp636
I0
g545
sI1
g36
sI2
g36
sI3
g35
sI4
g36
sI5
g35
sI6
g545
sI7
g35
sI8
g35
sI9
g34
sI10
g34
sI11
g82
sI12
g34
sI13
g545
ssI14
(dp637
I0
g545
sI1
g36
sI2
g36
sI3
g35
sI4
g36
sI5
g35
sI6
g545
sI7
g35
sI8
g35
sI9
g34
sI10
g34
sI11
g36
sI12
g34
sI13
g545
sssbI2
tp638
sI15
(g1
(g2
g3
Ntp639
Rp640
(dp641
g7
(lp642
g9
ag10
ag11
ag12
ag13
ag14
ag15
ag16
ag17
ag18
aS'10'
p643
aS'11'
p644
aS'12'
p645
aS'13'
p646
aS'14'
p647
aS'15'
p648
aS'16'
p649
aS'17'
p650
aS'18'
p651
aS'19'
p652
asg29
g30
sg31
I01
sg32
(dp653
I0
g35
sI1
g35
sI2
g35
sI3
g35
sI4
g34
sI5
g34
sI6
g35
sI7
g34
sI8
g36
sI9
g36
sI10
g34
sI11
g35
sI12
g36
sI13
g34
sI14
g34
ssg37
g1
(g38
g3
Ntp654
Rp655
(dp656
g42
(dp657
I0
(dp658
sI1
(dp659
sI2
(dp660
sI3
(dp661
sI4
(dp662
sI5
(dp663
sI6
(dp664
sI7
(dp665
sI8
(dp666
sI9
(dp667
sI10
(dp668
sI11
(dp669
sI12
(dp670
sI13
(dp671
sI14
(dp672
ssg51
g52
sg53
g52
sg54
(dp673
I0
(dp674
I9
(dp675
sI5
(dp676
sI13
(dp677
ssI1
(dp678
I9
(dp679
sI13
(dp680
sI5
(dp681
sI14
(dp682
sI7
(dp683
ssI2
(dp684
I9
(dp685
sI7
(dp686
ssI3
(dp687
I12
(dp688
sI4
(dp689
sI14
(dp690
sI7
(dp691
ssI4
(dp692
I8
(dp693
sI3
g689
sI12
(dp694
ssI5
(dp695
I0
g676
sI1
g681
sI9
(dp696
sI6
(dp697
sI8
(dp698
ssI6
(dp699
I8
(dp700
sI9
(dp701
sI12
(dp702
sI5
g697
sI14
(dp703
ssI7
(dp704
I1
g683
sI2
g686
sI3
g691
ssI8
(dp705
I14
(dp706
sI4
g693
sI5
g698
sI6
g700
sI13
(dp707
ssI9
(dp708
I0
g675
sI1
g679
sI2
g685
sI5
g696
sI6
g701
sI10
(dp709
sI11
(dp710
sI13
(dp711
ssI10
(dp712
I9
g709
sI11
(dp713
ssI11
(dp714
I9
g710
sI10
g713
sI12
(dp715
sI14
(dp716
ssI12
(dp717
I11
g715
sI3
g688
sI4
g694
sI13
(dp718
sI6
g702
ssI13
(dp719
I0
g677
sI1
g680
sI12
g718
sI8
g707
sI9
g711
ssI14
(dp720
I8
g706
sI1
g682
sI3
g690
sI6
g703
sI11
g716
sssg37
(dp721
sg75
g52
sg76
g673
sbsg77
S'/home/mickael/Documents/projects/examination-scheduling/booth/plots/'
p722
sg79
(dp723
I0
(dp724
I0
g82
sI1
g82
sI2
g82
sI3
g82
sI4
g82
sI5
g82
sI6
g82
sI7
g82
sI8
g82
sI9
g82
sI10
g82
sI11
g82
sI12
g82
sI13
g82
sI14
g82
ssI1
(dp725
I0
g82
sI1
g35
sI2
g82
sI3
g82
sI4
g82
sI5
g82
sI6
g82
sI7
g82
sI8
g82
sI9
g82
sI10
g82
sI11
g82
sI12
g82
sI13
g82
sI14
g82
ssI2
(dp726
I0
g82
sI1
g35
sI2
g82
sI3
g35
sI4
g82
sI5
g82
sI6
g82
sI7
g82
sI8
g82
sI9
g82
sI10
g82
sI11
g82
sI12
g82
sI13
g82
sI14
g82
ssI3
(dp727
I0
g82
sI1
g35
sI2
g82
sI3
g35
sI4
g82
sI5
g82
sI6
g82
sI7
g82
sI8
g82
sI9
g82
sI10
g82
sI11
g82
sI12
g82
sI13
g34
sI14
g82
ssI4
(dp728
I0
g82
sI1
g35
sI2
g35
sI3
g35
sI4
g82
sI5
g82
sI6
g82
sI7
g82
sI8
g82
sI9
g82
sI10
g82
sI11
g82
sI12
g82
sI13
g34
sI14
g82
ssI5
(dp729
I0
g82
sI1
g35
sI2
g35
sI3
g35
sI4
g82
sI5
g82
sI6
g82
sI7
g82
sI8
g82
sI9
g82
sI10
g82
sI11
g35
sI12
g82
sI13
g34
sI14
g82
ssI6
(dp730
I0
g82
sI1
g35
sI2
g35
sI3
g35
sI4
g82
sI5
g82
sI6
g35
sI7
g82
sI8
g82
sI9
g82
sI10
g82
sI11
g35
sI12
g82
sI13
g34
sI14
g82
ssI7
(dp731
I0
g82
sI1
g35
sI2
g35
sI3
g35
sI4
g82
sI5
g82
sI6
g35
sI7
g82
sI8
g82
sI9
g36
sI10
g82
sI11
g35
sI12
g82
sI13
g34
sI14
g82
ssI8
(dp732
I0
g82
sI1
g35
sI2
g35
sI3
g35
sI4
g82
sI5
g82
sI6
g35
sI7
g34
sI8
g82
sI9
g36
sI10
g82
sI11
g35
sI12
g82
sI13
g34
sI14
g82
ssI9
(dp733
I0
g82
sI1
g35
sI2
g35
sI3
g35
sI4
g34
sI5
g82
sI6
g35
sI7
g34
sI8
g82
sI9
g36
sI10
g82
sI11
g35
sI12
g82
sI13
g34
sI14
g82
ssI10
(dp734
I0
g35
sI1
g35
sI2
g35
sI3
g35
sI4
g34
sI5
g82
sI6
g35
sI7
g34
sI8
g82
sI9
g36
sI10
g82
sI11
g35
sI12
g82
sI13
g34
sI14
g82
ssI11
(dp735
I0
g35
sI1
g35
sI2
g35
sI3
g35
sI4
g34
sI5
g82
sI6
g35
sI7
g34
sI8
g82
sI9
g36
sI10
g82
sI11
g35
sI12
g82
sI13
g34
sI14
g34
ssI12
(dp736
I0
g35
sI1
g35
sI2
g35
sI3
g35
sI4
g34
sI5
g82
sI6
g35
sI7
g34
sI8
g82
sI9
g36
sI10
g34
sI11
g35
sI12
g82
sI13
g34
sI14
g34
ssI13
(dp737
I0
g35
sI1
g35
sI2
g35
sI3
g35
sI4
g34
sI5
g82
sI6
g35
sI7
g34
sI8
g36
sI9
g36
sI10
g34
sI11
g35
sI12
g82
sI13
g34
sI14
g34
ssI14
(dp738
I0
g35
sI1
g35
sI2
g35
sI3
g35
sI4
g34
sI5
g82
sI6
g35
sI7
g34
sI8
g36
sI9
g36
sI10
g34
sI11
g35
sI12
g36
sI13
g34
sI14
g34
ssI15
(dp739
I0
g35
sI1
g35
sI2
g35
sI3
g35
sI4
g34
sI5
g34
sI6
g35
sI7
g34
sI8
g36
sI9
g36
sI10
g34
sI11
g35
sI12
g36
sI13
g34
sI14
g34
sssbI1
tp740
sI16
(g1
(g2
g3
Ntp741
Rp742
(dp743
g7
(lp744
g9
ag10
ag11
ag12
ag13
ag14
ag15
ag16
ag17
ag18
aS'10'
p745
aS'11'
p746
aS'12'
p747
aS'13'
p748
aS'14'
p749
aS'15'
p750
aS'16'
p751
aS'17'
p752
aS'18'
p753
aS'19'
p754
asg29
g30
sg31
I01
sg32
(dp755
I0
g36
sI1
g36
sI2
g34
sI3
g36
sI4
g36
sI5
g34
sI6
g34
sI7
g34
sI8
g35
sI9
g35
sI10
g35
sI11
g35
sI12
g35
sI13
g36
sI14
g34
sI15
g34
ssg37
g1
(g38
g3
Ntp756
Rp757
(dp758
g42
(dp759
I0
(dp760
sI1
(dp761
sI2
(dp762
sI3
(dp763
sI4
(dp764
sI5
(dp765
sI6
(dp766
sI7
(dp767
sI8
(dp768
sI9
(dp769
sI10
(dp770
sI11
(dp771
sI12
(dp772
sI13
(dp773
sI14
(dp774
sI15
(dp775
ssg51
g52
sg53
g52
sg54
(dp776
I0
(dp777
I2
(dp778
sI15
(dp779
sI10
(dp780
sI7
(dp781
ssI1
(dp782
I2
(dp783
sI5
(dp784
sI11
(dp785
sI12
(dp786
sI14
(dp787
sI15
(dp788
ssI2
(dp789
I0
g778
sI1
g783
sI4
(dp790
sI11
(dp791
sI12
(dp792
sI13
(dp793
ssI3
(dp794
I10
(dp795
sI12
(dp796
sI14
(dp797
sI6
(dp798
sI7
(dp799
ssI4
(dp800
I2
g790
sI14
(dp801
sI10
(dp802
sI6
(dp803
sI15
(dp804
ssI5
(dp805
I8
(dp806
sI1
g784
sI13
(dp807
ssI6
(dp808
I3
g798
sI4
g803
sI8
(dp809
sI10
(dp810
sI12
(dp811
sI13
(dp812
ssI7
(dp813
I0
g781
sI3
g799
sI8
(dp814
sI9
(dp815
sI10
(dp816
sI12
(dp817
ssI8
(dp818
I15
(dp819
sI5
g806
sI6
g809
sI7
g814
ssI9
(dp820
I7
g815
ssI10
(dp821
I0
g780
sI3
g795
sI4
g802
sI6
g810
sI7
g816
sI13
(dp822
sI14
(dp823
ssI11
(dp824
I1
g785
sI2
g791
sI13
(dp825
ssI12
(dp826
I1
g786
sI2
g792
sI3
g796
sI6
g811
sI7
g817
sI15
(dp827
ssI13
(dp828
I2
g793
sI5
g807
sI6
g812
sI10
g822
sI11
g825
sI14
(dp829
sI15
(dp830
ssI14
(dp831
I1
g787
sI10
g823
sI3
g797
sI4
g801
sI13
g829
ssI15
(dp832
I0
g779
sI1
g788
sI4
g804
sI8
g819
sI12
g827
sI13
g830
sssg37
(dp833
sg75
g52
sg76
g776
sbsg77
S'/home/mickael/Documents/projects/examination-scheduling/booth/plots/'
p834
sg79
(dp835
I0
(dp836
I0
g82
sI1
g82
sI2
g82
sI3
g82
sI4
g82
sI5
g82
sI6
g82
sI7
g82
sI8
g82
sI9
g82
sI10
g82
sI11
g82
sI12
g82
sI13
g82
sI14
g82
sI15
g82
ssI1
(dp837
I0
g82
sI1
g82
sI2
g82
sI3
g82
sI4
g82
sI5
g82
sI6
g82
sI7
g82
sI8
g35
sI9
g82
sI10
g82
sI11
g82
sI12
g82
sI13
g82
sI14
g82
sI15
g82
ssI2
(dp838
I0
g82
sI1
g82
sI2
g82
sI3
g82
sI4
g82
sI5
g82
sI6
g34
sI7
g82
sI8
g35
sI9
g82
sI10
g82
sI11
g82
sI12
g82
sI13
g82
sI14
g82
sI15
g82
ssI3
(dp839
I0
g82
sI1
g82
sI2
g82
sI3
g82
sI4
g82
sI5
g82
sI6
g34
sI7
g82
sI8
g35
sI9
g82
sI10
g82
sI11
g82
sI12
g82
sI13
g82
sI14
g82
sI15
g34
ssI4
(dp840
I0
g82
sI1
g82
sI2
g82
sI3
g82
sI4
g82
sI5
g82
sI6
g34
sI7
g82
sI8
g35
sI9
g82
sI10
g82
sI11
g35
sI12
g82
sI13
g82
sI14
g82
sI15
g34
ssI5
(dp841
I0
g82
sI1
g82
sI2
g82
sI3
g82
sI4
g82
sI5
g34
sI6
g34
sI7
g82
sI8
g35
sI9
g82
sI10
g82
sI11
g35
sI12
g82
sI13
g82
sI14
g82
sI15
g34
ssI6
(dp842
I0
g82
sI1
g36
sI2
g82
sI3
g82
sI4
g82
sI5
g34
sI6
g34
sI7
g82
sI8
g35
sI9
g82
sI10
g82
sI11
g35
sI12
g82
sI13
g82
sI14
g82
sI15
g34
ssI7
(dp843
I0
g82
sI1
g36
sI2
g82
sI3
g82
sI4
g82
sI5
g34
sI6
g34
sI7
g82
sI8
g35
sI9
g35
sI10
g82
sI11
g35
sI12
g82
sI13
g82
sI14
g82
sI15
g34
ssI8
(dp844
I0
g82
sI1
g36
sI2
g82
sI3
g82
sI4
g82
sI5
g34
sI6
g34
sI7
g82
sI8
g35
sI9
g35
sI10
g35
sI11
g35
sI12
g82
sI13
g82
sI14
g82
sI15
g34
ssI9
(dp845
I0
g82
sI1
g36
sI2
g82
sI3
g82
sI4
g82
sI5
g34
sI6
g34
sI7
g34
sI8
g35
sI9
g35
sI10
g35
sI11
g35
sI12
g82
sI13
g82
sI14
g82
sI15
g34
ssI10
(dp846
I0
g82
sI1
g36
sI2
g82
sI3
g82
sI4
g82
sI5
g34
sI6
g34
sI7
g34
sI8
g35
sI9
g35
sI10
g35
sI11
g35
sI12
g82
sI13
g82
sI14
g34
sI15
g34
ssI11
(dp847
I0
g82
sI1
g36
sI2
g34
sI3
g82
sI4
g82
sI5
g34
sI6
g34
sI7
g34
sI8
g35
sI9
g35
sI10
g35
sI11
g35
sI12
g82
sI13
g82
sI14
g34
sI15
g34
ssI12
(dp848
I0
g82
sI1
g36
sI2
g34
sI3
g82
sI4
g36
sI5
g34
sI6
g34
sI7
g34
sI8
g35
sI9
g35
sI10
g35
sI11
g35
sI12
g82
sI13
g82
sI14
g34
sI15
g34
ssI13
(dp849
I0
g36
sI1
g36
sI2
g34
sI3
g82
sI4
g36
sI5
g34
sI6
g34
sI7
g34
sI8
g35
sI9
g35
sI10
g35
sI11
g35
sI12
g82
sI13
g82
sI14
g34
sI15
g34
ssI14
(dp850
I0
g36
sI1
g36
sI2
g34
sI3
g36
sI4
g36
sI5
g34
sI6
g34
sI7
g34
sI8
g35
sI9
g35
sI10
g35
sI11
g35
sI12
g82
sI13
g82
sI14
g34
sI15
g34
ssI15
(dp851
I0
g36
sI1
g36
sI2
g34
sI3
g36
sI4
g36
sI5
g34
sI6
g34
sI7
g34
sI8
g35
sI9
g35
sI10
g35
sI11
g35
sI12
g35
sI13
g82
sI14
g34
sI15
g34
ssI16
(dp852
I0
g36
sI1
g36
sI2
g34
sI3
g36
sI4
g36
sI5
g34
sI6
g34
sI7
g34
sI8
g35
sI9
g35
sI10
g35
sI11
g35
sI12
g35
sI13
g36
sI14
g34
sI15
g34
sssbI2
tp853
sI17
(g1
(g2
g3
Ntp854
Rp855
(dp856
g7
(lp857
g9
ag10
ag11
ag12
ag13
ag14
ag15
ag16
ag17
ag18
aS'10'
p858
aS'11'
p859
aS'12'
p860
aS'13'
p861
aS'14'
p862
aS'15'
p863
aS'16'
p864
aS'17'
p865
aS'18'
p866
aS'19'
p867
asg29
g30
sg31
I01
sg32
(dp868
I0
g35
sI1
g36
sI2
g34
sI3
g34
sI4
g35
sI5
g35
sI6
g34
sI7
g36
sI8
g35
sI9
g35
sI10
g34
sI11
g35
sI12
g36
sI13
g36
sI14
g34
sI15
g35
sI16
g35
ssg37
g1
(g38
g3
Ntp869
Rp870
(dp871
g42
(dp872
I0
(dp873
sI1
(dp874
sI2
(dp875
sI3
(dp876
sI4
(dp877
sI5
(dp878
sI6
(dp879
sI7
(dp880
sI8
(dp881
sI9
(dp882
sI10
(dp883
sI11
(dp884
sI12
(dp885
sI13
(dp886
sI14
(dp887
sI15
(dp888
sI16
(dp889
ssg51
g52
sg53
g52
sg54
(dp890
I0
(dp891
I3
(dp892
sI6
(dp893
ssI1
(dp894
I4
(dp895
sI6
(dp896
sI8
(dp897
sI9
(dp898
sI10
(dp899
sI11
(dp900
sI15
(dp901
ssI2
(dp902
I9
(dp903
sI13
(dp904
ssI3
(dp905
I0
g892
sI4
(dp906
sI7
(dp907
sI11
(dp908
sI12
(dp909
sI16
(dp910
ssI4
(dp911
I1
g895
sI3
g906
ssI5
(dp912
sI6
(dp913
I0
g893
sI1
g896
sI9
(dp914
sI12
(dp915
sI15
(dp916
sI16
(dp917
ssI7
(dp918
I3
g907
sI8
(dp919
sI10
(dp920
sI11
(dp921
sI14
(dp922
sI15
(dp923
ssI8
(dp924
I1
g897
sI10
(dp925
sI7
g919
ssI9
(dp926
I1
g898
sI2
g903
sI12
(dp927
sI14
(dp928
sI6
g914
ssI10
(dp929
I8
g925
sI1
g899
sI11
(dp930
sI16
(dp931
sI7
g920
ssI11
(dp932
I1
g900
sI3
g908
sI7
g921
sI10
g930
sI12
(dp933
sI13
(dp934
sI14
(dp935
ssI12
(dp936
I11
g933
sI9
g927
sI3
g909
sI6
g915
sI16
(dp937
ssI13
(dp938
I2
g904
sI11
g934
sI14
(dp939
ssI14
(dp940
I16
(dp941
sI9
g928
sI11
g935
sI13
g939
sI7
g922
ssI15
(dp942
I1
g901
sI6
g916
sI7
g923
ssI16
(dp943
I10
g931
sI3
g910
sI12
g937
sI14
g941
sI6
g917
sssg37
(dp944
sg75
g52
sg76
g890
sbsg77
S'/home/mickael/Documents/projects/examination-scheduling/booth/plots/'
p945
sg79
(dp946
I0
(dp947
I0
g82
sI1
g82
sI2
g82
sI3
g82
sI4
g82
sI5
g82
sI6
g82
sI7
g82
sI8
g82
sI9
g82
sI10
g82
sI11
g82
sI12
g82
sI13
g82
sI14
g82
sI15
g82
sI16
g82
ssI1
(dp948
I0
g35
sI1
g82
sI2
g82
sI3
g82
sI4
g82
sI5
g82
sI6
g82
sI7
g82
sI8
g82
sI9
g82
sI10
g82
sI11
g82
sI12
g82
sI13
g82
sI14
g82
sI15
g82
sI16
g82
ssI2
(dp949
I0
g35
sI1
g82
sI2
g82
sI3
g82
sI4
g82
sI5
g82
sI6
g82
sI7
g82
sI8
g82
sI9
g82
sI10
g82
sI11
g35
sI12
g82
sI13
g82
sI14
g82
sI15
g82
sI16
g82
ssI3
(dp950
I0
g35
sI1
g82
sI2
g82
sI3
g82
sI4
g82
sI5
g82
sI6
g82
sI7
g82
sI8
g82
sI9
g35
sI10
g82
sI11
g35
sI12
g82
sI13
g82
sI14
g82
sI15
g82
sI16
g82
ssI4
(dp951
I0
g35
sI1
g82
sI2
g82
sI3
g82
sI4
g82
sI5
g82
sI6
g34
sI7
g82
sI8
g82
sI9
g35
sI10
g82
sI11
g35
sI12
g82
sI13
g82
sI14
g82
sI15
g82
sI16
g82
ssI5
(dp952
I0
g35
sI1
g82
sI2
g82
sI3
g82
sI4
g82
sI5
g35
sI6
g34
sI7
g82
sI8
g82
sI9
g35
sI10
g82
sI11
g35
sI12
g82
sI13
g82
sI14
g82
sI15
g82
sI16
g82
ssI6
(dp953
I0
g35
sI1
g82
sI2
g34
sI3
g82
sI4
g82
sI5
g35
sI6
g34
sI7
g82
sI8
g82
sI9
g35
sI10
g82
sI11
g35
sI12
g82
sI13
g82
sI14
g82
sI15
g82
sI16
g82
ssI7
(dp954
I0
g35
sI1
g82
sI2
g34
sI3
g82
sI4
g82
sI5
g35
sI6
g34
sI7
g82
sI8
g82
sI9
g35
sI10
g82
sI11
g35
sI12
g82
sI13
g82
sI14
g82
sI15
g82
sI16
g35
ssI8
(dp955
I0
g35
sI1
g82
sI2
g34
sI3
g82
sI4
g82
sI5
g35
sI6
g34
sI7
g82
sI8
g82
sI9
g35
sI10
g82
sI11
g35
sI12
g82
sI13
g36
sI14
g82
sI15
g82
sI16
g35
ssI9
(dp956
I0
g35
sI1
g82
sI2
g34
sI3
g82
sI4
g82
sI5
g35
sI6
g34
sI7
g82
sI8
g82
sI9
g35
sI10
g34
sI11
g35
sI12
g82
sI13
g36
sI14
g82
sI15
g82
sI16
g35
ssI10
(dp957
I0
g35
sI1
g82
sI2
g34
sI3
g82
sI4
g35
sI5
g35
sI6
g34
sI7
g82
sI8
g82
sI9
g35
sI10
g34
sI11
g35
sI12
g82
sI13
g36
sI14
g82
sI15
g82
sI16
g35
ssI11
(dp958
I0
g35
sI1
g82
sI2
g34
sI3
g82
sI4
g35
sI5
g35
sI6
g34
sI7
g82
sI8
g82
sI9
g35
sI10
g34
sI11
g35
sI12
g82
sI13
g36
sI14
g82
sI15
g35
sI16
g35
ssI12
(dp959
I0
g35
sI1
g82
sI2
g34
sI3
g82
sI4
g35
sI5
g35
sI6
g34
sI7
g82
sI8
g82
sI9
g35
sI10
g34
sI11
g35
sI12
g36
sI13
g36
sI14
g82
sI15
g35
sI16
g35
ssI13
(dp960
I0
g35
sI1
g82
sI2
g34
sI3
g82
sI4
g35
sI5
g35
sI6
g34
sI7
g82
sI8
g82
sI9
g35
sI10
g34
sI11
g35
sI12
g36
sI13
g36
sI14
g34
sI15
g35
sI16
g35
ssI14
(dp961
I0
g35
sI1
g82
sI2
g34
sI3
g34
sI4
g35
sI5
g35
sI6
g34
sI7
g82
sI8
g82
sI9
g35
sI10
g34
sI11
g35
sI12
g36
sI13
g36
sI14
g34
sI15
g35
sI16
g35
ssI15
(dp962
I0
g35
sI1
g82
sI2
g34
sI3
g34
sI4
g35
sI5
g35
sI6
g34
sI7
g82
sI8
g35
sI9
g35
sI10
g34
sI11
g35
sI12
g36
sI13
g36
sI14
g34
sI15
g35
sI16
g35
ssI16
(dp963
I0
g35
sI1
g36
sI2
g34
sI3
g34
sI4
g35
sI5
g35
sI6
g34
sI7
g82
sI8
g35
sI9
g35
sI10
g34
sI11
g35
sI12
g36
sI13
g36
sI14
g34
sI15
g35
sI16
g35
ssI17
(dp964
I0
g35
sI1
g36
sI2
g34
sI3
g34
sI4
g35
sI5
g35
sI6
g34
sI7
g36
sI8
g35
sI9
g35
sI10
g34
sI11
g35
sI12
g36
sI13
g36
sI14
g34
sI15
g35
sI16
g35
sssbI2
tp965
sI18
(g1
(g2
g3
Ntp966
Rp967
(dp968
g7
(lp969
g9
ag10
ag11
ag12
ag13
ag14
ag15
ag16
ag17
ag18
aS'10'
p970
aS'11'
p971
aS'12'
p972
aS'13'
p973
aS'14'
p974
aS'15'
p975
aS'16'
p976
aS'17'
p977
aS'18'
p978
aS'19'
p979
asg29
g30
sg31
I01
sg32
(dp980
I0
g34
sI1
g35
sI2
g35
sI3
g34
sI4
g34
sI5
g34
sI6
g35
sI7
g35
sI8
g34
sI9
g36
sI10
g34
sI11
g36
sI12
g36
sI13
g34
sI14
g35
sI15
g36
sI16
g35
sI17
g36
ssg37
g1
(g38
g3
Ntp981
Rp982
(dp983
g42
(dp984
I0
(dp985
sI1
(dp986
sI2
(dp987
sI3
(dp988
sI4
(dp989
sI5
(dp990
sI6
(dp991
sI7
(dp992
sI8
(dp993
sI9
(dp994
sI10
(dp995
sI11
(dp996
sI12
(dp997
sI13
(dp998
sI14
(dp999
sI15
(dp1000
sI16
(dp1001
sI17
(dp1002
ssg51
g52
sg53
g52
sg54
(dp1003
I0
(dp1004
I1
(dp1005
sI14
(dp1006
sI9
(dp1007
ssI1
(dp1008
I0
g1005
sI11
(dp1009
sI3
(dp1010
sI12
(dp1011
ssI2
(dp1012
I8
(dp1013
sI17
(dp1014
sI12
(dp1015
sI5
(dp1016
sI13
(dp1017
ssI3
(dp1018
I16
(dp1019
sI1
g1010
sI12
(dp1020
sI14
(dp1021
sI15
(dp1022
ssI4
(dp1023
I16
(dp1024
sI11
(dp1025
sI12
(dp1026
ssI5
(dp1027
I17
(dp1028
sI2
g1016
sI11
(dp1029
sI12
(dp1030
ssI6
(dp1031
I10
(dp1032
ssI7
(dp1033
I9
(dp1034
sI10
(dp1035
sI11
(dp1036
sI12
(dp1037
sI13
(dp1038
ssI8
(dp1039
I16
(dp1040
sI2
g1013
sI11
(dp1041
sI12
(dp1042
ssI9
(dp1043
I0
g1007
sI16
(dp1044
sI10
(dp1045
sI7
g1034
ssI10
(dp1046
I6
g1032
sI7
g1035
sI9
g1045
sI12
(dp1047
sI14
(dp1048
sI15
(dp1049
sI16
(dp1050
sI17
(dp1051
ssI11
(dp1052
I1
g1009
sI4
g1025
sI5
g1029
sI7
g1036
sI8
g1041
sI14
(dp1053
ssI12
(dp1054
I1
g1011
sI2
g1015
sI3
g1020
sI4
g1026
sI5
g1030
sI7
g1037
sI8
g1042
sI10
g1047
sI13
(dp1055
ssI13
(dp1056
I16
(dp1057
sI2
g1017
sI12
g1055
sI14
(dp1058
sI7
g1038
ssI14
(dp1059
I0
g1006
sI3
g1021
sI10
g1048
sI11
g1053
sI13
g1058
sI15
(dp1060
ssI15
(dp1061
I10
g1049
sI3
g1022
sI14
g1060
ssI16
(dp1062
I3
g1019
sI4
g1024
sI8
g1040
sI9
g1044
sI10
g1050
sI13
g1057
sI17
(dp1063
ssI17
(dp1064
I16
g1063
sI2
g1014
sI10
g1051
sI5
g1028
sssg37
(dp1065
sg75
g52
sg76
g1003
sbsg77
S'/home/mickael/Documents/projects/examination-scheduling/booth/plots/'
p1066
sg79
(dp1067
I0
(dp1068
I0
g82
sI1
g82
sI2
g82
sI3
g82
sI4
g82
sI5
g82
sI6
g82
sI7
g82
sI8
g82
sI9
g82
sI10
g82
sI11
g82
sI12
g82
sI13
g82
sI14
g82
sI15
g82
sI16
g82
sI17
g82
ssI1
(dp1069
I0
g82
sI1
g82
sI2
g82
sI3
g82
sI4
g82
sI5
g82
sI6
g82
sI7
g82
sI8
g82
sI9
g82
sI10
g82
sI11
g82
sI12
g82
sI13
g82
sI14
g35
sI15
g82
sI16
g82
sI17
g82
ssI2
(dp1070
I0
g82
sI1
g82
sI2
g82
sI3
g82
sI4
g82
sI5
g82
sI6
g82
sI7
g82
sI8
g82
sI9
g82
sI10
g34
sI11
g82
sI12
g82
sI13
g82
sI14
g35
sI15
g82
sI16
g82
sI17
g82
ssI3
(dp1071
I0
g82
sI1
g82
sI2
g82
sI3
g82
sI4
g82
sI5
g82
sI6
g82
sI7
g82
sI8
g82
sI9
g82
sI10
g34
sI11
g82
sI12
g82
sI13
g82
sI14
g35
sI15
g82
sI16
g35
sI17
g82
ssI4
(dp1072
I0
g82
sI1
g82
sI2
g82
sI3
g82
sI4
g34
sI5
g82
sI6
g82
sI7
g82
sI8
g82
sI9
g82
sI10
g34
sI11
g82
sI12
g82
sI13
g82
sI14
g35
sI15
g82
sI16
g35
sI17
g82
ssI5
(dp1073
I0
g82
sI1
g82
sI2
g82
sI3
g34
sI4
g34
sI5
g82
sI6
g82
sI7
g82
sI8
g82
sI9
g82
sI10
g34
sI11
g82
sI12
g82
sI13
g82
sI14
g35
sI15
g82
sI16
g35
sI17
g82
ssI6
(dp1074
I0
g82
sI1
g82
sI2
g82
sI3
g34
sI4
g34
sI5
g82
sI6
g82
sI7
g82
sI8
g82
sI9
g82
sI10
g34
sI11
g82
sI12
g82
sI13
g82
sI14
g35
sI15
g36
sI16
g35
sI17
g82
ssI7
(dp1075
I0
g82
sI1
g82
sI2
g82
sI3
g34
sI4
g34
sI5
g82
sI6
g82
sI7
g82
sI8
g34
sI9
g82
sI10
g34
sI11
g82
sI12
g82
sI13
g82
sI14
g35
sI15
g36
sI16
g35
sI17
g82
ssI8
(dp1076
I0
g34
sI1
g82
sI2
g82
sI3
g34
sI4
g34
sI5
g82
sI6
g82
sI7
g82
sI8
g34
sI9
g82
sI10
g34
sI11
g82
sI12
g82
sI13
g82
sI14
g35
sI15
g36
sI16
g35
sI17
g82
ssI9
(dp1077
I0
g34
sI1
g82
sI2
g35
sI3
g34
sI4
g34
sI5
g82
sI6
g82
sI7
g82
sI8
g34
sI9
g82
sI10
g34
sI11
g82
sI12
g82
sI13
g82
sI14
g35
sI15
g36
sI16
g35
sI17
g82
ssI10
(dp1078
I0
g34
sI1
g35
sI2
g35
sI3
g34
sI4
g34
sI5
g82
sI6
g82
sI7
g82
sI8
g34
sI9
g82
sI10
g34
sI11
g82
sI12
g82
sI13
g82
sI14
g35
sI15
g36
sI16
g35
sI17
g82
ssI11
(dp1079
I0
g34
sI1
g35
sI2
g35
sI3
g34
sI4
g34
sI5
g34
sI6
g82
sI7
g82
sI8
g34
sI9
g82
sI10
g34
sI11
g82
sI12
g82
sI13
g82
sI14
g35
sI15
g36
sI16
g35
sI17
g82
ssI12
(dp1080
I0
g34
sI1
g35
sI2
g35
sI3
g34
sI4
g34
sI5
g34
sI6
g82
sI7
g82
sI8
g34
sI9
g82
sI10
g34
sI11
g82
sI12
g82
sI13
g34
sI14
g35
sI15
g36
sI16
g35
sI17
g82
ssI13
(dp1081
I0
g34
sI1
g35
sI2
g35
sI3
g34
sI4
g34
sI5
g34
sI6
g35
sI7
g82
sI8
g34
sI9
g82
sI10
g34
sI11
g82
sI12
g82
sI13
g34
sI14
g35
sI15
g36
sI16
g35
sI17
g82
ssI14
(dp1082
I0
g34
sI1
g35
sI2
g35
sI3
g34
sI4
g34
sI5
g34
sI6
g35
sI7
g82
sI8
g34
sI9
g82
sI10
g34
sI11
g82
sI12
g82
sI13
g34
sI14
g35
sI15
g36
sI16
g35
sI17
g36
ssI15
(dp1083
I0
g34
sI1
g35
sI2
g35
sI3
g34
sI4
g34
sI5
g34
sI6
g35
sI7
g82
sI8
g34
sI9
g36
sI10
g34
sI11
g82
sI12
g82
sI13
g34
sI14
g35
sI15
g36
sI16
g35
sI17
g36
ssI16
(dp1084
I0
g34
sI1
g35
sI2
g35
sI3
g34
sI4
g34
sI5
g34
sI6
g35
sI7
g82
sI8
g34
sI9
g36
sI10
g34
sI11
g36
sI12
g82
sI13
g34
sI14
g35
sI15
g36
sI16
g35
sI17
g36
ssI17
(dp1085
I0
g34
sI1
g35
sI2
g35
sI3
g34
sI4
g34
sI5
g34
sI6
g35
sI7
g35
sI8
g34
sI9
g36
sI10
g34
sI11
g36
sI12
g82
sI13
g34
sI14
g35
sI15
g36
sI16
g35
sI17
g36
ssI18
(dp1086
I0
g34
sI1
g35
sI2
g35
sI3
g34
sI4
g34
sI5
g34
sI6
g35
sI7
g35
sI8
g34
sI9
g36
sI10
g34
sI11
g36
sI12
g36
sI13
g34
sI14
g35
sI15
g36
sI16
g35
sI17
g36
sssbI2
tp1087
sI19
(g1
(g2
g3
Ntp1088
Rp1089
(dp1090
g7
(lp1091
g9
ag10
ag11
ag12
ag13
ag14
ag15
ag16
ag17
ag18
aS'10'
p1092
aS'11'
p1093
aS'12'
p1094
aS'13'
p1095
aS'14'
p1096
aS'15'
p1097
aS'16'
p1098
aS'17'
p1099
aS'18'
p1100
aS'19'
p1101
asg29
g30
sg31
I01
sg32
(dp1102
I0
g36
sI1
g34
sI2
g36
sI3
g35
sI4
g36
sI5
g35
sI6
g35
sI7
g35
sI8
g34
sI9
g36
sI10
g34
sI11
g34
sI12
g36
sI13
g35
sI14
g35
sI15
g34
sI16
g34
sI17
g34
sI18
g34
ssg37
g1
(g38
g3
Ntp1103
Rp1104
(dp1105
g42
(dp1106
I0
(dp1107
sI1
(dp1108
sI2
(dp1109
sI3
(dp1110
sI4
(dp1111
sI5
(dp1112
sI6
(dp1113
sI7
(dp1114
sI8
(dp1115
sI9
(dp1116
sI10
(dp1117
sI11
(dp1118
sI12
(dp1119
sI13
(dp1120
sI14
(dp1121
sI15
(dp1122
sI16
(dp1123
sI17
(dp1124
sI18
(dp1125
ssg51
g52
sg53
g52
sg54
(dp1126
I0
(dp1127
I1
(dp1128
sI3
(dp1129
sI10
(dp1130
sI11
(dp1131
sI13
(dp1132
sI15
(dp1133
sI18
(dp1134
ssI1
(dp1135
I0
g1128
sI2
(dp1136
sI12
(dp1137
sI5
(dp1138
sI13
(dp1139
ssI2
(dp1140
I1
g1136
sI3
(dp1141
sI6
(dp1142
sI10
(dp1143
sI13
(dp1144
sI14
(dp1145
sI15
(dp1146
sI16
(dp1147
sI17
(dp1148
ssI3
(dp1149
I0
g1129
sI2
g1141
sI9
(dp1150
sI10
(dp1151
sI11
(dp1152
sI16
(dp1153
sI17
(dp1154
ssI4
(dp1155
I16
(dp1156
sI10
(dp1157
sI6
(dp1158
ssI5
(dp1159
I8
(dp1160
sI1
g1138
sI12
(dp1161
sI16
(dp1162
sI15
(dp1163
ssI6
(dp1164
I16
(dp1165
sI2
g1142
sI18
(dp1166
sI4
g1158
sI10
(dp1167
ssI7
(dp1168
I8
(dp1169
sI16
(dp1170
sI12
(dp1171
sI17
(dp1172
ssI8
(dp1173
I13
(dp1174
sI12
(dp1175
sI5
g1160
sI14
(dp1176
sI7
g1169
ssI9
(dp1177
I16
(dp1178
sI10
(dp1179
sI3
g1150
sI14
(dp1180
sI15
(dp1181
ssI10
(dp1182
I0
g1130
sI2
g1143
sI3
g1151
sI4
g1157
sI6
g1167
sI9
g1179
sI12
(dp1183
ssI11
(dp1184
I0
g1131
sI3
g1152
sI12
(dp1185
ssI12
(dp1186
I1
g1137
sI5
g1161
sI7
g1171
sI8
g1175
sI10
g1183
sI11
g1185
sI13
(dp1187
sI14
(dp1188
ssI13
(dp1189
I0
g1132
sI1
g1139
sI2
g1144
sI8
g1174
sI12
g1187
sI15
(dp1190
sI17
(dp1191
ssI14
(dp1192
I8
g1176
sI9
g1180
sI2
g1145
sI12
g1188
sI15
(dp1193
ssI15
(dp1194
I0
g1133
sI2
g1146
sI5
g1163
sI9
g1181
sI13
g1190
sI14
g1193
ssI16
(dp1195
I2
g1147
sI3
g1153
sI4
g1156
sI5
g1162
sI6
g1165
sI7
g1170
sI9
g1178
ssI17
(dp1196
I2
g1148
sI3
g1154
sI13
g1191
sI7
g1172
ssI18
(dp1197
I0
g1134
sI6
g1166
sssg37
(dp1198
sg75
g52
sg76
g1126
sbsg77
S'/home/mickael/Documents/projects/examination-scheduling/booth/plots/'
p1199
sg79
(dp1200
I0
(dp1201
I0
g82
sI1
g82
sI2
g82
sI3
g82
sI4
g82
sI5
g82
sI6
g82
sI7
g82
sI8
g82
sI9
g82
sI10
g82
sI11
g82
sI12
g82
sI13
g82
sI14
g82
sI15
g82
sI16
g82
sI17
g82
sI18
g82
ssI1
(dp1202
I0
g82
sI1
g82
sI2
g82
sI3
g35
sI4
g82
sI5
g82
sI6
g82
sI7
g82
sI8
g82
sI9
g82
sI10
g82
sI11
g82
sI12
g82
sI13
g82
sI14
g82
sI15
g82
sI16
g82
sI17
g82
sI18
g82
ssI2
(dp1203
I0
g82
sI1
g82
sI2
g82
sI3
g35
sI4
g82
sI5
g82
sI6
g82
sI7
g82
sI8
g82
sI9
g82
sI10
g34
sI11
g82
sI12
g82
sI13
g82
sI14
g82
sI15
g82
sI16
g82
sI17
g82
sI18
g82
ssI3
(dp1204
I0
g82
sI1
g82
sI2
g82
sI3
g35
sI4
g82
sI5
g82
sI6
g35
sI7
g82
sI8
g82
sI9
g82
sI10
g34
sI11
g82
sI12
g82
sI13
g82
sI14
g82
sI15
g82
sI16
g82
sI17
g82
sI18
g82
ssI4
(dp1205
I0
g36
sI1
g82
sI2
g82
sI3
g35
sI4
g82
sI5
g82
sI6
g35
sI7
g82
sI8
g82
sI9
g82
sI10
g34
sI11
g82
sI12
g82
sI13
g82
sI14
g82
sI15
g82
sI16
g82
sI17
g82
sI18
g82
ssI5
(dp1206
I0
g36
sI1
g82
sI2
g82
sI3
g35
sI4
g82
sI5
g82
sI6
g35
sI7
g82
sI8
g82
sI9
g82
sI10
g34
sI11
g82
sI12
g82
sI13
g82
sI14
g82
sI15
g82
sI16
g82
sI17
g82
sI18
g34
ssI6
(dp1207
I0
g36
sI1
g82
sI2
g82
sI3
g35
sI4
g82
sI5
g35
sI6
g35
sI7
g82
sI8
g82
sI9
g82
sI10
g34
sI11
g82
sI12
g82
sI13
g82
sI14
g82
sI15
g82
sI16
g82
sI17
g82
sI18
g34
ssI7
(dp1208
I0
g36
sI1
g82
sI2
g82
sI3
g35
sI4
g82
sI5
g35
sI6
g35
sI7
g82
sI8
g82
sI9
g82
sI10
g34
sI11
g82
sI12
g82
sI13
g82
sI14
g82
sI15
g82
sI16
g82
sI17
g34
sI18
g34
ssI8
(dp1209
I0
g36
sI1
g82
sI2
g82
sI3
g35
sI4
g36
sI5
g35
sI6
g35
sI7
g82
sI8
g82
sI9
g82
sI10
g34
sI11
g82
sI12
g82
sI13
g82
sI14
g82
sI15
g82
sI16
g82
sI17
g34
sI18
g34
ssI9
(dp1210
I0
g36
sI1
g82
sI2
g82
sI3
g35
sI4
g36
sI5
g35
sI6
g35
sI7
g82
sI8
g82
sI9
g82
sI10
g34
sI11
g34
sI12
g82
sI13
g82
sI14
g82
sI15
g82
sI16
g82
sI17
g34
sI18
g34
ssI10
(dp1211
I0
g36
sI1
g82
sI2
g82
sI3
g35
sI4
g36
sI5
g35
sI6
g35
sI7
g82
sI8
g34
sI9
g82
sI10
g34
sI11
g34
sI12
g82
sI13
g82
sI14
g82
sI15
g82
sI16
g82
sI17
g34
sI18
g34
ssI11
(dp1212
I0
g36
sI1
g82
sI2
g82
sI3
g35
sI4
g36
sI5
g35
sI6
g35
sI7
g82
sI8
g34
sI9
g36
sI10
g34
sI11
g34
sI12
g82
sI13
g82
sI14
g82
sI15
g82
sI16
g82
sI17
g34
sI18
g34
ssI12
(dp1213
I0
g36
sI1
g82
sI2
g82
sI3
g35
sI4
g36
sI5
g35
sI6
g35
sI7
g82
sI8
g34
sI9
g36
sI10
g34
sI11
g34
sI12
g36
sI13
g82
sI14
g82
sI15
g82
sI16
g82
sI17
g34
sI18
g34
ssI13
(dp1214
I0
g36
sI1
g82
sI2
g82
sI3
g35
sI4
g36
sI5
g35
sI6
g35
sI7
g82
sI8
g34
sI9
g36
sI10
g34
sI11
g34
sI12
g36
sI13
g35
sI14
g82
sI15
g82
sI16
g82
sI17
g34
sI18
g34
ssI14
(dp1215
I0
g36
sI1
g82
sI2
g82
sI3
g35
sI4
g36
sI5
g35
sI6
g35
sI7
g82
sI8
g34
sI9
g36
sI10
g34
sI11
g34
sI12
g36
sI13
g35
sI14
g35
sI15
g82
sI16
g82
sI17
g34
sI18
g34
ssI15
(dp1216
I0
g36
sI1
g34
sI2
g82
sI3
g35
sI4
g36
sI5
g35
sI6
g35
sI7
g82
sI8
g34
sI9
g36
sI10
g34
sI11
g34
sI12
g36
sI13
g35
sI14
g35
sI15
g82
sI16
g82
sI17
g34
sI18
g34
ssI16
(dp1217
I0
g36
sI1
g34
sI2
g82
sI3
g35
sI4
g36
sI5
g35
sI6
g35
sI7
g82
sI8
g34
sI9
g36
sI10
g34
sI11
g34
sI12
g36
sI13
g35
sI14
g35
sI15
g34
sI16
g82
sI17
g34
sI18
g34
ssI17
(dp1218
I0
g36
sI1
g34
sI2
g36
sI3
g35
sI4
g36
sI5
g35
sI6
g35
sI7
g82
sI8
g34
sI9
g36
sI10
g34
sI11
g34
sI12
g36
sI13
g35
sI14
g35
sI15
g34
sI16
g82
sI17
g34
sI18
g34
ssI18
(dp1219
I0
g36
sI1
g34
sI2
g36
sI3
g35
sI4
g36
sI5
g35
sI6
g35
sI7
g82
sI8
g34
sI9
g36
sI10
g34
sI11
g34
sI12
g36
sI13
g35
sI14
g35
sI15
g34
sI16
g34
sI17
g34
sI18
g34
ssI19
(dp1220
I0
g36
sI1
g34
sI2
g36
sI3
g35
sI4
g36
sI5
g35
sI6
g35
sI7
g35
sI8
g34
sI9
g36
sI10
g34
sI11
g34
sI12
g36
sI13
g35
sI14
g35
sI15
g34
sI16
g34
sI17
g34
sI18
g34
sssbI2
tp1221
sI20
(g1
(g2
g3
Ntp1222
Rp1223
(dp1224
g7
(lp1225
g9
ag10
ag11
ag12
ag13
ag14
ag15
ag16
ag17
ag18
aS'10'
p1226
aS'11'
p1227
aS'12'
p1228
aS'13'
p1229
aS'14'
p1230
aS'15'
p1231
aS'16'
p1232
aS'17'
p1233
aS'18'
p1234
aS'19'
p1235
asg29
g30
sg31
I01
sg32
(dp1236
I0
g35
sI1
g35
sI2
g35
sI3
g34
sI4
S'orange'
p1237
sI5
g34
sI6
g545
sI7
g34
sI8
g36
sI9
g36
sI10
g34
sI11
g35
sI12
g34
sI13
g34
sI14
g34
sI15
g35
sI16
g34
sI17
g35
sI18
g545
sI19
g36
ssg37
g1
(g38
g3
Ntp1238
Rp1239
(dp1240
g42
(dp1241
I0
(dp1242
sI1
(dp1243
sI2
(dp1244
sI3
(dp1245
sI4
(dp1246
sI5
(dp1247
sI6
(dp1248
sI7
(dp1249
sI8
(dp1250
sI9
(dp1251
sI10
(dp1252
sI11
(dp1253
sI12
(dp1254
sI13
(dp1255
sI14
(dp1256
sI15
(dp1257
sI16
(dp1258
sI17
(dp1259
sI18
(dp1260
sI19
(dp1261
ssg51
g52
sg53
g52
sg54
(dp1262
I0
(dp1263
I16
(dp1264
sI10
(dp1265
sI19
(dp1266
sI13
(dp1267
sI6
(dp1268
ssI1
(dp1269
I3
(dp1270
sI7
(dp1271
sI8
(dp1272
sI9
(dp1273
sI13
(dp1274
sI14
(dp1275
ssI2
(dp1276
I16
(dp1277
sI9
(dp1278
sI14
(dp1279
sI6
(dp1280
ssI3
(dp1281
I8
(dp1282
sI1
g1270
sI6
(dp1283
sI17
(dp1284
ssI4
(dp1285
I5
(dp1286
sI6
(dp1287
sI7
(dp1288
sI8
(dp1289
sI10
(dp1290
sI11
(dp1291
sI12
(dp1292
sI15
(dp1293
sI16
(dp1294
sI17
(dp1295
sI18
(dp1296
ssI5
(dp1297
I19
(dp1298
sI9
(dp1299
sI11
(dp1300
sI4
g1286
ssI6
(dp1301
I0
g1268
sI2
g1280
sI3
g1283
sI4
g1287
sI7
(dp1302
sI9
(dp1303
ssI7
(dp1304
I1
g1271
sI4
g1288
sI6
g1302
sI8
(dp1305
sI9
(dp1306
sI15
(dp1307
sI18
(dp1308
sI19
(dp1309
ssI8
(dp1310
I1
g1272
sI3
g1282
sI4
g1289
sI7
g1305
sI10
(dp1311
sI11
(dp1312
sI12
(dp1313
sI13
(dp1314
sI15
(dp1315
ssI9
(dp1316
I1
g1273
sI2
g1278
sI5
g1299
sI6
g1303
sI7
g1306
sI11
(dp1317
sI12
(dp1318
sI13
(dp1319
sI15
(dp1320
sI16
(dp1321
ssI10
(dp1322
I0
g1265
sI8
g1311
sI11
(dp1323
sI4
g1290
sI15
(dp1324
ssI11
(dp1325
I4
g1291
sI5
g1300
sI8
g1312
sI9
g1317
sI10
g1323
sI14
(dp1326
sI16
(dp1327
sI18
(dp1328
ssI12
(dp1329
I8
g1313
sI9
g1318
sI4
g1292
sI17
(dp1330
ssI13
(dp1331
I0
g1267
sI1
g1274
sI8
g1314
sI9
g1319
sI18
(dp1332
sI19
(dp1333
ssI14
(dp1334
I19
(dp1335
sI1
g1275
sI2
g1279
sI11
g1326
ssI15
(dp1336
I4
g1293
sI7
g1307
sI8
g1315
sI9
g1320
sI10
g1324
sI19
(dp1337
ssI16
(dp1338
I0
g1264
sI2
g1277
sI4
g1294
sI9
g1321
sI11
g1327
sI18
(dp1339
ssI17
(dp1340
I12
g1330
sI3
g1284
sI4
g1295
ssI18
(dp1341
I4
g1296
sI7
g1308
sI11
g1328
sI13
g1332
sI16
g1339
sI19
(dp1342
ssI19
(dp1343
I0
g1266
sI5
g1298
sI7
g1309
sI13
g1333
sI14
g1335
sI15
g1337
sI18
g1342
sssg37
(dp1344
sg75
g52
sg76
g1262
sbsg77
S'/home/mickael/Documents/projects/examination-scheduling/booth/plots/'
p1345
sg79
(dp1346
I0
(dp1347
I0
g82
sI1
g82
sI2
g82
sI3
g82
sI4
g82
sI5
g82
sI6
g82
sI7
g82
sI8
g82
sI9
g82
sI10
g82
sI11
g82
sI12
g82
sI13
g82
sI14
g82
sI15
g82
sI16
g82
sI17
g82
sI18
g82
sI19
g82
ssI1
(dp1348
I0
g35
sI1
g82
sI2
g82
sI3
g82
sI4
g82
sI5
g82
sI6
g82
sI7
g82
sI8
g82
sI9
g82
sI10
g82
sI11
g82
sI12
g82
sI13
g82
sI14
g82
sI15
g82
sI16
g82
sI17
g82
sI18
g82
sI19
g82
ssI2
(dp1349
I0
g35
sI1
g82
sI2
g82
sI3
g82
sI4
g82
sI5
g82
sI6
g82
sI7
g82
sI8
g82
sI9
g82
sI10
g82
sI11
g35
sI12
g82
sI13
g82
sI14
g82
sI15
g82
sI16
g82
sI17
g82
sI18
g82
sI19
g82
ssI3
(dp1350
I0
g35
sI1
g82
sI2
g82
sI3
g82
sI4
g82
sI5
g82
sI6
g82
sI7
g82
sI8
g82
sI9
g82
sI10
g82
sI11
g35
sI12
g82
sI13
g82
sI14
g34
sI15
g82
sI16
g82
sI17
g82
sI18
g82
sI19
g82
ssI4
(dp1351
I0
g35
sI1
g82
sI2
g82
sI3
g82
sI4
g82
sI5
g82
sI6
g82
sI7
g82
sI8
g82
sI9
g82
sI10
g82
sI11
g35
sI12
g82
sI13
g82
sI14
g34
sI15
g82
sI16
g82
sI17
g35
sI18
g82
sI19
g82
ssI5
(dp1352
I0
g35
sI1
g82
sI2
g82
sI3
g34
sI4
g82
sI5
g82
sI6
g82
sI7
g82
sI8
g82
sI9
g82
sI10
g82
sI11
g35
sI12
g82
sI13
g82
sI14
g34
sI15
g82
sI16
g82
sI17
g35
sI18
g82
sI19
g82
ssI6
(dp1353
I0
g35
sI1
g82
sI2
g82
sI3
g34
sI4
g82
sI5
g82
sI6
g82
sI7
g82
sI8
g82
sI9
g82
sI10
g82
sI11
g35
sI12
g82
sI13
g82
sI14
g34
sI15
g82
sI16
g82
sI17
g35
sI18
g82
sI19
g36
ssI7
(dp1354
I0
g35
sI1
g82
sI2
g35
sI3
g34
sI4
g82
sI5
g82
sI6
g82
sI7
g82
sI8
g82
sI9
g82
sI10
g82
sI11
g35
sI12
g82
sI13
g82
sI14
g34
sI15
g82
sI16
g82
sI17
g35
sI18
g82
sI19
g36
ssI8
(dp1355
I0
g35
sI1
g82
sI2
g35
sI3
g34
sI4
g82
sI5
g34
sI6
g82
sI7
g82
sI8
g82
sI9
g82
sI10
g82
sI11
g35
sI12
g82
sI13
g82
sI14
g34
sI15
g82
sI16
g82
sI17
g35
sI18
g82
sI19
g36
ssI9
(dp1356
I0
g35
sI1
g35
sI2
g35
sI3
g34
sI4
g82
sI5
g34
sI6
g82
sI7
g82
sI8
g82
sI9
g82
sI10
g82
sI11
g35
sI12
g82
sI13
g82
sI14
g34
sI15
g82
sI16
g82
sI17
g35
sI18
g82
sI19
g36
ssI10
(dp1357
I0
g35
sI1
g35
sI2
g35
sI3
g34
sI4
g82
sI5
g34
sI6
g82
sI7
g82
sI8
g36
sI9
g82
sI10
g82
sI11
g35
sI12
g82
sI13
g82
sI14
g34
sI15
g82
sI16
g82
sI17
g35
sI18
g82
sI19
g36
ssI11
(dp1358
I0
g35
sI1
g35
sI2
g35
sI3
g34
sI4
g82
sI5
g34
sI6
g82
sI7
g82
sI8
g36
sI9
g82
sI10
g82
sI11
g35
sI12
g82
sI13
g82
sI14
g34
sI15
g35
sI16
g82
sI17
g35
sI18
g82
sI19
g36
ssI12
(dp1359
I0
g35
sI1
g35
sI2
g35
sI3
g34
sI4
g82
sI5
g34
sI6
g82
sI7
g34
sI8
g36
sI9
g82
sI10
g82
sI11
g35
sI12
g82
sI13
g82
sI14
g34
sI15
g35
sI16
g82
sI17
g35
sI18
g82
sI19
g36
ssI13
(dp1360
I0
g35
sI1
g35
sI2
g35
sI3
g34
sI4
g82
sI5
g34
sI6
g82
sI7
g34
sI8
g36
sI9
g82
sI10
g82
sI11
g35
sI12
g34
sI13
g82
sI14
g34
sI15
g35
sI16
g82
sI17
g35
sI18
g82
sI19
g36
ssI14
(dp1361
I0
g35
sI1
g35
sI2
g35
sI3
g34
sI4
g82
sI5
g34
sI6
g82
sI7
g34
sI8
g36
sI9
g36
sI10
g82
sI11
g35
sI12
g34
sI13
g82
sI14
g34
sI15
g35
sI16
g82
sI17
g35
sI18
g82
sI19
g36
ssI15
(dp1362
I0
g35
sI1
g35
sI2
g35
sI3
g34
sI4
g82
sI5
g34
sI6
g545
sI7
g34
sI8
g36
sI9
g36
sI10
g82
sI11
g35
sI12
g34
sI13
g82
sI14
g34
sI15
g35
sI16
g82
sI17
g35
sI18
g82
sI19
g36
ssI16
(dp1363
I0
g35
sI1
g35
sI2
g35
sI3
g34
sI4
g82
sI5
g34
sI6
g545
sI7
g34
sI8
g36
sI9
g36
sI10
g82
sI11
g35
sI12
g34
sI13
g34
sI14
g34
sI15
g35
sI16
g82
sI17
g35
sI18
g82
sI19
g36
ssI17
(dp1364
I0
g35
sI1
g35
sI2
g35
sI3
g34
sI4
g1237
sI5
g34
sI6
g545
sI7
g34
sI8
g36
sI9
g36
sI10
g82
sI11
g35
sI12
g34
sI13
g34
sI14
g34
sI15
g35
sI16
g82
sI17
g35
sI18
g82
sI19
g36
ssI18
(dp1365
I0
g35
sI1
g35
sI2
g35
sI3
g34
sI4
g1237
sI5
g34
sI6
g545
sI7
g34
sI8
g36
sI9
g36
sI10
g34
sI11
g35
sI12
g34
sI13
g34
sI14
g34
sI15
g35
sI16
g82
sI17
g35
sI18
g82
sI19
g36
ssI19
(dp1366
I0
g35
sI1
g35
sI2
g35
sI3
g34
sI4
g1237
sI5
g34
sI6
g545
sI7
g34
sI8
g36
sI9
g36
sI10
g34
sI11
g35
sI12
g34
sI13
g34
sI14
g34
sI15
g35
sI16
g34
sI17
g35
sI18
g82
sI19
g36
ssI20
(dp1367
I0
g35
sI1
g35
sI2
g35
sI3
g34
sI4
g1237
sI5
g34
sI6
g545
sI7
g34
sI8
g36
sI9
g36
sI10
g34
sI11
g35
sI12
g34
sI13
g34
sI14
g34
sI15
g35
sI16
g34
sI17
g35
sI18
g545
sI19
g36
sssbI1
tp1368
s.